ARM GAS  /tmp/ccNKo9M1.s 			page 1


   1              		.syntax unified
   2              		.cpu cortex-m4
   3              		.eabi_attribute 27, 1
   4              		.eabi_attribute 28, 1
   5              		.fpu fpv4-sp-d16
   6              		.eabi_attribute 20, 1
   7              		.eabi_attribute 21, 1
   8              		.eabi_attribute 23, 3
   9              		.eabi_attribute 24, 1
  10              		.eabi_attribute 25, 1
  11              		.eabi_attribute 26, 1
  12              		.eabi_attribute 30, 1
  13              		.eabi_attribute 34, 1
  14              		.eabi_attribute 18, 4
  15              		.thumb
  16              		.syntax unified
  17              		.file	"stm32l4xx_hal_dac.c"
  18              		.text
  19              	.Ltext0:
  20              		.cfi_sections	.debug_frame
  21              		.section	.text.HAL_DAC_MspInit,"ax",%progbits
  22              		.align	2
  23              		.weak	HAL_DAC_MspInit
  24              		.thumb
  25              		.thumb_func
  27              	HAL_DAC_MspInit:
  28              	.LFB290:
  29              		.file 1 "Drivers/STM32L4xx_HAL_Driver/Src/stm32l4xx_hal_dac.c"
   1:Drivers/STM32L4xx_HAL_Driver/Src/stm32l4xx_hal_dac.c **** /**
   2:Drivers/STM32L4xx_HAL_Driver/Src/stm32l4xx_hal_dac.c ****   ******************************************************************************
   3:Drivers/STM32L4xx_HAL_Driver/Src/stm32l4xx_hal_dac.c ****   * @file    stm32l4xx_hal_dac.c
   4:Drivers/STM32L4xx_HAL_Driver/Src/stm32l4xx_hal_dac.c ****   * @author  MCD Application Team
   5:Drivers/STM32L4xx_HAL_Driver/Src/stm32l4xx_hal_dac.c ****   * @brief   DAC HAL module driver.
   6:Drivers/STM32L4xx_HAL_Driver/Src/stm32l4xx_hal_dac.c ****   *         This file provides firmware functions to manage the following
   7:Drivers/STM32L4xx_HAL_Driver/Src/stm32l4xx_hal_dac.c ****   *         functionalities of the Digital to Analog Converter (DAC) peripheral:
   8:Drivers/STM32L4xx_HAL_Driver/Src/stm32l4xx_hal_dac.c ****   *           + Initialization and de-initialization functions
   9:Drivers/STM32L4xx_HAL_Driver/Src/stm32l4xx_hal_dac.c ****   *           + IO operation functions
  10:Drivers/STM32L4xx_HAL_Driver/Src/stm32l4xx_hal_dac.c ****   *           + Peripheral Control functions
  11:Drivers/STM32L4xx_HAL_Driver/Src/stm32l4xx_hal_dac.c ****   *           + Peripheral State and Errors functions
  12:Drivers/STM32L4xx_HAL_Driver/Src/stm32l4xx_hal_dac.c ****   *
  13:Drivers/STM32L4xx_HAL_Driver/Src/stm32l4xx_hal_dac.c ****   *
  14:Drivers/STM32L4xx_HAL_Driver/Src/stm32l4xx_hal_dac.c ****   @verbatim
  15:Drivers/STM32L4xx_HAL_Driver/Src/stm32l4xx_hal_dac.c ****   ==============================================================================
  16:Drivers/STM32L4xx_HAL_Driver/Src/stm32l4xx_hal_dac.c ****                       ##### DAC Peripheral features #####
  17:Drivers/STM32L4xx_HAL_Driver/Src/stm32l4xx_hal_dac.c ****   ==============================================================================
  18:Drivers/STM32L4xx_HAL_Driver/Src/stm32l4xx_hal_dac.c ****     [..]
  19:Drivers/STM32L4xx_HAL_Driver/Src/stm32l4xx_hal_dac.c ****       *** DAC Channels ***
  20:Drivers/STM32L4xx_HAL_Driver/Src/stm32l4xx_hal_dac.c ****       ====================
  21:Drivers/STM32L4xx_HAL_Driver/Src/stm32l4xx_hal_dac.c ****     [..]
  22:Drivers/STM32L4xx_HAL_Driver/Src/stm32l4xx_hal_dac.c ****     STM32L4 devices integrate one or two 12-bit Digital Analog Converters
  23:Drivers/STM32L4xx_HAL_Driver/Src/stm32l4xx_hal_dac.c ****     (i.e. one or 2 channel(s))
  24:Drivers/STM32L4xx_HAL_Driver/Src/stm32l4xx_hal_dac.c ****     1 channel : STM32L451xx STM32L452xx STM32L462xx
  25:Drivers/STM32L4xx_HAL_Driver/Src/stm32l4xx_hal_dac.c ****     2 channels: STM32L431xx STM32L432xx STM32L433xx STM32L442xx STM32L443xx
  26:Drivers/STM32L4xx_HAL_Driver/Src/stm32l4xx_hal_dac.c ****                 STM32L471xx STM32L475xx STM32L476xx STM32L485xx STM32L486xx STM32L496xx STM32L4A6xx
  27:Drivers/STM32L4xx_HAL_Driver/Src/stm32l4xx_hal_dac.c ****                 STM32L4P5xx STM32L4Q5xx
  28:Drivers/STM32L4xx_HAL_Driver/Src/stm32l4xx_hal_dac.c ****                 STM32L4R5xx STM32L4R7xx STM32L4R9xx STM32L4S5xx STM32L4S7xx STM32L4S9xx
  29:Drivers/STM32L4xx_HAL_Driver/Src/stm32l4xx_hal_dac.c **** 
ARM GAS  /tmp/ccNKo9M1.s 			page 2


  30:Drivers/STM32L4xx_HAL_Driver/Src/stm32l4xx_hal_dac.c ****     When 2 channels are available, the 2 converters (i.e. channel1 & channel2)
  31:Drivers/STM32L4xx_HAL_Driver/Src/stm32l4xx_hal_dac.c ****     can be used independently or simultaneously (dual mode):
  32:Drivers/STM32L4xx_HAL_Driver/Src/stm32l4xx_hal_dac.c ****       (#) DAC channel1 with DAC_OUT1 (PA4) as output or connected to on-chip
  33:Drivers/STM32L4xx_HAL_Driver/Src/stm32l4xx_hal_dac.c ****           peripherals.
  34:Drivers/STM32L4xx_HAL_Driver/Src/stm32l4xx_hal_dac.c ****       (#) Whenever present, DAC channel2 with DAC_OUT2 (PA5) as output
  35:Drivers/STM32L4xx_HAL_Driver/Src/stm32l4xx_hal_dac.c ****           or connected to on-chip peripherals.
  36:Drivers/STM32L4xx_HAL_Driver/Src/stm32l4xx_hal_dac.c **** 
  37:Drivers/STM32L4xx_HAL_Driver/Src/stm32l4xx_hal_dac.c ****       *** DAC Triggers ***
  38:Drivers/STM32L4xx_HAL_Driver/Src/stm32l4xx_hal_dac.c ****       ====================
  39:Drivers/STM32L4xx_HAL_Driver/Src/stm32l4xx_hal_dac.c ****     [..]
  40:Drivers/STM32L4xx_HAL_Driver/Src/stm32l4xx_hal_dac.c ****     Digital to Analog conversion can be non-triggered using DAC_TRIGGER_NONE
  41:Drivers/STM32L4xx_HAL_Driver/Src/stm32l4xx_hal_dac.c ****     and DAC_OUT1/DAC_OUT2 is available once writing to DHRx register.
  42:Drivers/STM32L4xx_HAL_Driver/Src/stm32l4xx_hal_dac.c ****     [..]
  43:Drivers/STM32L4xx_HAL_Driver/Src/stm32l4xx_hal_dac.c ****     Digital to Analog conversion can be triggered by:
  44:Drivers/STM32L4xx_HAL_Driver/Src/stm32l4xx_hal_dac.c ****       (#) External event: EXTI Line 9 (any GPIOx_PIN_9) using DAC_TRIGGER_EXT_IT9.
  45:Drivers/STM32L4xx_HAL_Driver/Src/stm32l4xx_hal_dac.c ****           The used pin (GPIOx_PIN_9) must be configured in input mode.
  46:Drivers/STM32L4xx_HAL_Driver/Src/stm32l4xx_hal_dac.c **** 
  47:Drivers/STM32L4xx_HAL_Driver/Src/stm32l4xx_hal_dac.c ****       (#) Timers TRGO: TIM2, TIM3, TIM4, TIM5, TIM6 and TIM7
  48:Drivers/STM32L4xx_HAL_Driver/Src/stm32l4xx_hal_dac.c ****           (DAC_TRIGGER_T2_TRGO, DAC_TRIGGER_T3_TRGO...)
  49:Drivers/STM32L4xx_HAL_Driver/Src/stm32l4xx_hal_dac.c **** 
  50:Drivers/STM32L4xx_HAL_Driver/Src/stm32l4xx_hal_dac.c ****       (#) Software using DAC_TRIGGER_SOFTWARE
  51:Drivers/STM32L4xx_HAL_Driver/Src/stm32l4xx_hal_dac.c **** 
  52:Drivers/STM32L4xx_HAL_Driver/Src/stm32l4xx_hal_dac.c ****       *** DAC Buffer mode feature ***
  53:Drivers/STM32L4xx_HAL_Driver/Src/stm32l4xx_hal_dac.c ****       ===============================
  54:Drivers/STM32L4xx_HAL_Driver/Src/stm32l4xx_hal_dac.c ****       [..]
  55:Drivers/STM32L4xx_HAL_Driver/Src/stm32l4xx_hal_dac.c ****       Each DAC channel integrates an output buffer that can be used to
  56:Drivers/STM32L4xx_HAL_Driver/Src/stm32l4xx_hal_dac.c ****       reduce the output impedance, and to drive external loads directly
  57:Drivers/STM32L4xx_HAL_Driver/Src/stm32l4xx_hal_dac.c ****       without having to add an external operational amplifier.
  58:Drivers/STM32L4xx_HAL_Driver/Src/stm32l4xx_hal_dac.c ****       To enable, the output buffer use
  59:Drivers/STM32L4xx_HAL_Driver/Src/stm32l4xx_hal_dac.c ****       sConfig.DAC_OutputBuffer = DAC_OUTPUTBUFFER_ENABLE;
  60:Drivers/STM32L4xx_HAL_Driver/Src/stm32l4xx_hal_dac.c ****       [..]
  61:Drivers/STM32L4xx_HAL_Driver/Src/stm32l4xx_hal_dac.c ****       (@) Refer to the device datasheet for more details about output
  62:Drivers/STM32L4xx_HAL_Driver/Src/stm32l4xx_hal_dac.c ****           impedance value with and without output buffer.
  63:Drivers/STM32L4xx_HAL_Driver/Src/stm32l4xx_hal_dac.c **** 
  64:Drivers/STM32L4xx_HAL_Driver/Src/stm32l4xx_hal_dac.c ****       *** DAC connect feature ***
  65:Drivers/STM32L4xx_HAL_Driver/Src/stm32l4xx_hal_dac.c ****       ===============================
  66:Drivers/STM32L4xx_HAL_Driver/Src/stm32l4xx_hal_dac.c ****       [..]
  67:Drivers/STM32L4xx_HAL_Driver/Src/stm32l4xx_hal_dac.c ****       Each DAC channel can be connected internally.
  68:Drivers/STM32L4xx_HAL_Driver/Src/stm32l4xx_hal_dac.c ****       To connect, use
  69:Drivers/STM32L4xx_HAL_Driver/Src/stm32l4xx_hal_dac.c ****       sConfig.DAC_ConnectOnChipPeripheral = DAC_CHIPCONNECT_ENABLE;
  70:Drivers/STM32L4xx_HAL_Driver/Src/stm32l4xx_hal_dac.c **** 
  71:Drivers/STM32L4xx_HAL_Driver/Src/stm32l4xx_hal_dac.c ****       *** GPIO configurations guidelines ***
  72:Drivers/STM32L4xx_HAL_Driver/Src/stm32l4xx_hal_dac.c ****       =====================
  73:Drivers/STM32L4xx_HAL_Driver/Src/stm32l4xx_hal_dac.c ****       [..]
  74:Drivers/STM32L4xx_HAL_Driver/Src/stm32l4xx_hal_dac.c ****       When a DAC channel is used (ex channel1 on PA4) and the other is not
  75:Drivers/STM32L4xx_HAL_Driver/Src/stm32l4xx_hal_dac.c ****       (ex channel2 on PA5 is configured in Analog and disabled).
  76:Drivers/STM32L4xx_HAL_Driver/Src/stm32l4xx_hal_dac.c ****       Channel1 may disturb channel2 as coupling effect.
  77:Drivers/STM32L4xx_HAL_Driver/Src/stm32l4xx_hal_dac.c ****       Note that there is no coupling on channel2 as soon as channel2 is turned on.
  78:Drivers/STM32L4xx_HAL_Driver/Src/stm32l4xx_hal_dac.c ****       Coupling on adjacent channel could be avoided as follows:
  79:Drivers/STM32L4xx_HAL_Driver/Src/stm32l4xx_hal_dac.c ****       when unused PA5 is configured as INPUT PULL-UP or DOWN.
  80:Drivers/STM32L4xx_HAL_Driver/Src/stm32l4xx_hal_dac.c ****       PA5 is configured in ANALOG just before it is turned on.
  81:Drivers/STM32L4xx_HAL_Driver/Src/stm32l4xx_hal_dac.c **** 
  82:Drivers/STM32L4xx_HAL_Driver/Src/stm32l4xx_hal_dac.c ****       *** DAC Sample and Hold feature ***
  83:Drivers/STM32L4xx_HAL_Driver/Src/stm32l4xx_hal_dac.c ****       ========================
  84:Drivers/STM32L4xx_HAL_Driver/Src/stm32l4xx_hal_dac.c ****       [..]
  85:Drivers/STM32L4xx_HAL_Driver/Src/stm32l4xx_hal_dac.c ****       For each converter, 2 modes are supported: normal mode and
  86:Drivers/STM32L4xx_HAL_Driver/Src/stm32l4xx_hal_dac.c ****       "sample and hold" mode (i.e. low power mode).
ARM GAS  /tmp/ccNKo9M1.s 			page 3


  87:Drivers/STM32L4xx_HAL_Driver/Src/stm32l4xx_hal_dac.c ****       In the sample and hold mode, the DAC core converts data, then holds the
  88:Drivers/STM32L4xx_HAL_Driver/Src/stm32l4xx_hal_dac.c ****       converted voltage on a capacitor. When not converting, the DAC cores and
  89:Drivers/STM32L4xx_HAL_Driver/Src/stm32l4xx_hal_dac.c ****       buffer are completely turned off between samples and the DAC output is
  90:Drivers/STM32L4xx_HAL_Driver/Src/stm32l4xx_hal_dac.c ****       tri-stated, therefore  reducing the overall power consumption. A new
  91:Drivers/STM32L4xx_HAL_Driver/Src/stm32l4xx_hal_dac.c ****       stabilization period is needed before each new conversion.
  92:Drivers/STM32L4xx_HAL_Driver/Src/stm32l4xx_hal_dac.c **** 
  93:Drivers/STM32L4xx_HAL_Driver/Src/stm32l4xx_hal_dac.c ****       The sample and hold allow setting internal or external voltage @
  94:Drivers/STM32L4xx_HAL_Driver/Src/stm32l4xx_hal_dac.c ****       low power consumption cost (output value can be at any given rate either
  95:Drivers/STM32L4xx_HAL_Driver/Src/stm32l4xx_hal_dac.c ****       by CPU or DMA).
  96:Drivers/STM32L4xx_HAL_Driver/Src/stm32l4xx_hal_dac.c **** 
  97:Drivers/STM32L4xx_HAL_Driver/Src/stm32l4xx_hal_dac.c ****       The Sample and hold block and registers uses either LSI & run in
  98:Drivers/STM32L4xx_HAL_Driver/Src/stm32l4xx_hal_dac.c ****       several power modes: run mode, sleep mode, low power run, low power sleep
  99:Drivers/STM32L4xx_HAL_Driver/Src/stm32l4xx_hal_dac.c ****       mode & stop1 mode.
 100:Drivers/STM32L4xx_HAL_Driver/Src/stm32l4xx_hal_dac.c **** 
 101:Drivers/STM32L4xx_HAL_Driver/Src/stm32l4xx_hal_dac.c ****       Low power stop1 mode allows only static conversion.
 102:Drivers/STM32L4xx_HAL_Driver/Src/stm32l4xx_hal_dac.c **** 
 103:Drivers/STM32L4xx_HAL_Driver/Src/stm32l4xx_hal_dac.c ****       To enable Sample and Hold mode
 104:Drivers/STM32L4xx_HAL_Driver/Src/stm32l4xx_hal_dac.c ****       Enable LSI using HAL_RCC_OscConfig with RCC_OSCILLATORTYPE_LSI &
 105:Drivers/STM32L4xx_HAL_Driver/Src/stm32l4xx_hal_dac.c ****       RCC_LSI_ON parameters.
 106:Drivers/STM32L4xx_HAL_Driver/Src/stm32l4xx_hal_dac.c **** 
 107:Drivers/STM32L4xx_HAL_Driver/Src/stm32l4xx_hal_dac.c ****       Use DAC_InitStructure.DAC_SampleAndHold = DAC_SAMPLEANDHOLD_ENABLE;
 108:Drivers/STM32L4xx_HAL_Driver/Src/stm32l4xx_hal_dac.c ****          & DAC_ChannelConfTypeDef.DAC_SampleAndHoldConfig.DAC_SampleTime,
 109:Drivers/STM32L4xx_HAL_Driver/Src/stm32l4xx_hal_dac.c ****            DAC_HoldTime & DAC_RefreshTime;
 110:Drivers/STM32L4xx_HAL_Driver/Src/stm32l4xx_hal_dac.c **** 
 111:Drivers/STM32L4xx_HAL_Driver/Src/stm32l4xx_hal_dac.c ****        *** DAC calibration feature ***
 112:Drivers/STM32L4xx_HAL_Driver/Src/stm32l4xx_hal_dac.c ****        ===================================
 113:Drivers/STM32L4xx_HAL_Driver/Src/stm32l4xx_hal_dac.c ****       [..]
 114:Drivers/STM32L4xx_HAL_Driver/Src/stm32l4xx_hal_dac.c ****        (#)  The 2 converters (channel1 & channel2) provide calibration capabilities.
 115:Drivers/STM32L4xx_HAL_Driver/Src/stm32l4xx_hal_dac.c ****        (++) Calibration aims at correcting some offset of output buffer.
 116:Drivers/STM32L4xx_HAL_Driver/Src/stm32l4xx_hal_dac.c ****        (++) The DAC uses either factory calibration settings OR user defined
 117:Drivers/STM32L4xx_HAL_Driver/Src/stm32l4xx_hal_dac.c ****            calibration (trimming) settings (i.e. trimming mode).
 118:Drivers/STM32L4xx_HAL_Driver/Src/stm32l4xx_hal_dac.c ****        (++) The user defined settings can be figured out using self calibration
 119:Drivers/STM32L4xx_HAL_Driver/Src/stm32l4xx_hal_dac.c ****            handled by HAL_DACEx_SelfCalibrate.
 120:Drivers/STM32L4xx_HAL_Driver/Src/stm32l4xx_hal_dac.c ****        (++) HAL_DACEx_SelfCalibrate:
 121:Drivers/STM32L4xx_HAL_Driver/Src/stm32l4xx_hal_dac.c ****        (+++) Runs automatically the calibration.
 122:Drivers/STM32L4xx_HAL_Driver/Src/stm32l4xx_hal_dac.c ****        (+++) Enables the user trimming mode
 123:Drivers/STM32L4xx_HAL_Driver/Src/stm32l4xx_hal_dac.c ****        (+++) Updates a structure with trimming values with fresh calibration
 124:Drivers/STM32L4xx_HAL_Driver/Src/stm32l4xx_hal_dac.c ****             results.
 125:Drivers/STM32L4xx_HAL_Driver/Src/stm32l4xx_hal_dac.c ****             The user may store the calibration results for larger
 126:Drivers/STM32L4xx_HAL_Driver/Src/stm32l4xx_hal_dac.c ****             (ex monitoring the trimming as a function of temperature
 127:Drivers/STM32L4xx_HAL_Driver/Src/stm32l4xx_hal_dac.c ****             for instance)
 128:Drivers/STM32L4xx_HAL_Driver/Src/stm32l4xx_hal_dac.c **** 
 129:Drivers/STM32L4xx_HAL_Driver/Src/stm32l4xx_hal_dac.c ****        *** DAC wave generation feature ***
 130:Drivers/STM32L4xx_HAL_Driver/Src/stm32l4xx_hal_dac.c ****        ===================================
 131:Drivers/STM32L4xx_HAL_Driver/Src/stm32l4xx_hal_dac.c ****        [..]
 132:Drivers/STM32L4xx_HAL_Driver/Src/stm32l4xx_hal_dac.c ****        Both DAC channels can be used to generate
 133:Drivers/STM32L4xx_HAL_Driver/Src/stm32l4xx_hal_dac.c ****          (#) Noise wave
 134:Drivers/STM32L4xx_HAL_Driver/Src/stm32l4xx_hal_dac.c ****          (#) Triangle wave
 135:Drivers/STM32L4xx_HAL_Driver/Src/stm32l4xx_hal_dac.c **** 
 136:Drivers/STM32L4xx_HAL_Driver/Src/stm32l4xx_hal_dac.c ****        *** DAC data format ***
 137:Drivers/STM32L4xx_HAL_Driver/Src/stm32l4xx_hal_dac.c ****        =======================
 138:Drivers/STM32L4xx_HAL_Driver/Src/stm32l4xx_hal_dac.c ****        [..]
 139:Drivers/STM32L4xx_HAL_Driver/Src/stm32l4xx_hal_dac.c ****        The DAC data format can be:
 140:Drivers/STM32L4xx_HAL_Driver/Src/stm32l4xx_hal_dac.c ****          (#) 8-bit right alignment using DAC_ALIGN_8B_R
 141:Drivers/STM32L4xx_HAL_Driver/Src/stm32l4xx_hal_dac.c ****          (#) 12-bit left alignment using DAC_ALIGN_12B_L
 142:Drivers/STM32L4xx_HAL_Driver/Src/stm32l4xx_hal_dac.c ****          (#) 12-bit right alignment using DAC_ALIGN_12B_R
 143:Drivers/STM32L4xx_HAL_Driver/Src/stm32l4xx_hal_dac.c **** 
ARM GAS  /tmp/ccNKo9M1.s 			page 4


 144:Drivers/STM32L4xx_HAL_Driver/Src/stm32l4xx_hal_dac.c ****        *** DAC data value to voltage correspondence ***
 145:Drivers/STM32L4xx_HAL_Driver/Src/stm32l4xx_hal_dac.c ****        ================================================
 146:Drivers/STM32L4xx_HAL_Driver/Src/stm32l4xx_hal_dac.c ****        [..]
 147:Drivers/STM32L4xx_HAL_Driver/Src/stm32l4xx_hal_dac.c ****        The analog output voltage on each DAC channel pin is determined
 148:Drivers/STM32L4xx_HAL_Driver/Src/stm32l4xx_hal_dac.c ****        by the following equation:
 149:Drivers/STM32L4xx_HAL_Driver/Src/stm32l4xx_hal_dac.c ****        [..]
 150:Drivers/STM32L4xx_HAL_Driver/Src/stm32l4xx_hal_dac.c ****        DAC_OUTx = VREF+ * DOR / 4095
 151:Drivers/STM32L4xx_HAL_Driver/Src/stm32l4xx_hal_dac.c ****        (+) with  DOR is the Data Output Register
 152:Drivers/STM32L4xx_HAL_Driver/Src/stm32l4xx_hal_dac.c ****        [..]
 153:Drivers/STM32L4xx_HAL_Driver/Src/stm32l4xx_hal_dac.c ****           VEF+ is the input voltage reference (refer to the device datasheet)
 154:Drivers/STM32L4xx_HAL_Driver/Src/stm32l4xx_hal_dac.c ****        [..]
 155:Drivers/STM32L4xx_HAL_Driver/Src/stm32l4xx_hal_dac.c ****         e.g. To set DAC_OUT1 to 0.7V, use
 156:Drivers/STM32L4xx_HAL_Driver/Src/stm32l4xx_hal_dac.c ****        (+) Assuming that VREF+ = 3.3V, DAC_OUT1 = (3.3 * 868) / 4095 = 0.7V
 157:Drivers/STM32L4xx_HAL_Driver/Src/stm32l4xx_hal_dac.c **** 
 158:Drivers/STM32L4xx_HAL_Driver/Src/stm32l4xx_hal_dac.c ****        *** DMA requests ***
 159:Drivers/STM32L4xx_HAL_Driver/Src/stm32l4xx_hal_dac.c ****        =====================
 160:Drivers/STM32L4xx_HAL_Driver/Src/stm32l4xx_hal_dac.c ****        [..]
 161:Drivers/STM32L4xx_HAL_Driver/Src/stm32l4xx_hal_dac.c ****        A DMA1 request can be generated when an external trigger (but not a software trigger)
 162:Drivers/STM32L4xx_HAL_Driver/Src/stm32l4xx_hal_dac.c ****        occurs if DMA1 requests are enabled using HAL_DAC_Start_DMA().
 163:Drivers/STM32L4xx_HAL_Driver/Src/stm32l4xx_hal_dac.c ****        DMA requests are mapped as following:
 164:Drivers/STM32L4xx_HAL_Driver/Src/stm32l4xx_hal_dac.c ****        (#) When DMAMUX is NOT present: 
 165:Drivers/STM32L4xx_HAL_Driver/Src/stm32l4xx_hal_dac.c ****            DMA1 requests are mapped as following:
 166:Drivers/STM32L4xx_HAL_Driver/Src/stm32l4xx_hal_dac.c ****              (+) DAC channel1 mapped on DMA1 request 6 / channel3
 167:Drivers/STM32L4xx_HAL_Driver/Src/stm32l4xx_hal_dac.c ****              (+) DAC channel2 mapped on DMA1 request 5 / channel4
 168:Drivers/STM32L4xx_HAL_Driver/Src/stm32l4xx_hal_dac.c ****            DMA2 requests are mapped as following:
 169:Drivers/STM32L4xx_HAL_Driver/Src/stm32l4xx_hal_dac.c ****              (+) DAC channel1 mapped on DMA2 request 3 / channel4
 170:Drivers/STM32L4xx_HAL_Driver/Src/stm32l4xx_hal_dac.c ****              (+) DAC channel2 mapped on DMA2 request 3 / channel5
 171:Drivers/STM32L4xx_HAL_Driver/Src/stm32l4xx_hal_dac.c ****        (#) When DMAMUX is present: 
 172:Drivers/STM32L4xx_HAL_Driver/Src/stm32l4xx_hal_dac.c ****              (+) DAC channel1 mapped on DMA1/DMA2 request 6 (can be any DMA channel)
 173:Drivers/STM32L4xx_HAL_Driver/Src/stm32l4xx_hal_dac.c ****              (+) DAC channel2 mapped on DMA1/DMA2 request 7 (can be any DMA channel)
 174:Drivers/STM32L4xx_HAL_Driver/Src/stm32l4xx_hal_dac.c **** 
 175:Drivers/STM32L4xx_HAL_Driver/Src/stm32l4xx_hal_dac.c ****        *** High frequency interface mode ***
 176:Drivers/STM32L4xx_HAL_Driver/Src/stm32l4xx_hal_dac.c ****        =====================================
 177:Drivers/STM32L4xx_HAL_Driver/Src/stm32l4xx_hal_dac.c ****        [..]
 178:Drivers/STM32L4xx_HAL_Driver/Src/stm32l4xx_hal_dac.c ****        The high frequency interface informs DAC instance about the bus frequency in use.
 179:Drivers/STM32L4xx_HAL_Driver/Src/stm32l4xx_hal_dac.c ****        It is mandatory information for DAC (as internal timing of DAC is bus frequency dependent)
 180:Drivers/STM32L4xx_HAL_Driver/Src/stm32l4xx_hal_dac.c ****        provided thanks to parameter DAC_HighFrequency handled in HAL_DAC_ConfigChannel () function.
 181:Drivers/STM32L4xx_HAL_Driver/Src/stm32l4xx_hal_dac.c ****        Use of DAC_HIGH_FREQUENCY_INTERFACE_MODE_AUTOMATIC value of DAC_HighFrequency is recommended
 182:Drivers/STM32L4xx_HAL_Driver/Src/stm32l4xx_hal_dac.c ****        function figured out the correct setting.
 183:Drivers/STM32L4xx_HAL_Driver/Src/stm32l4xx_hal_dac.c ****        The high frequency mode is same for all converters of a same DAC instance. Either same
 184:Drivers/STM32L4xx_HAL_Driver/Src/stm32l4xx_hal_dac.c ****        parameter DAC_HighFrequency is used for all DAC converters or again self
 185:Drivers/STM32L4xx_HAL_Driver/Src/stm32l4xx_hal_dac.c ****        DAC_HIGH_FREQUENCY_INTERFACE_MODE_AUTOMATIC detection parameter.
 186:Drivers/STM32L4xx_HAL_Driver/Src/stm32l4xx_hal_dac.c **** 
 187:Drivers/STM32L4xx_HAL_Driver/Src/stm32l4xx_hal_dac.c ****      [..]
 188:Drivers/STM32L4xx_HAL_Driver/Src/stm32l4xx_hal_dac.c ****     (@) For Dual mode and specific signal (Triangle and noise) generation please
 189:Drivers/STM32L4xx_HAL_Driver/Src/stm32l4xx_hal_dac.c ****         refer to Extended Features Driver description
 190:Drivers/STM32L4xx_HAL_Driver/Src/stm32l4xx_hal_dac.c **** 
 191:Drivers/STM32L4xx_HAL_Driver/Src/stm32l4xx_hal_dac.c ****                       ##### How to use this driver #####
 192:Drivers/STM32L4xx_HAL_Driver/Src/stm32l4xx_hal_dac.c ****   ==============================================================================
 193:Drivers/STM32L4xx_HAL_Driver/Src/stm32l4xx_hal_dac.c ****     [..]
 194:Drivers/STM32L4xx_HAL_Driver/Src/stm32l4xx_hal_dac.c ****       (+) DAC APB clock must be enabled to get write access to DAC
 195:Drivers/STM32L4xx_HAL_Driver/Src/stm32l4xx_hal_dac.c ****           registers using HAL_DAC_Init()
 196:Drivers/STM32L4xx_HAL_Driver/Src/stm32l4xx_hal_dac.c ****       (+) Configure DAC_OUTx (DAC_OUT1: PA4, DAC_OUT2: PA5) in analog mode.
 197:Drivers/STM32L4xx_HAL_Driver/Src/stm32l4xx_hal_dac.c ****       (+) Configure the DAC channel using HAL_DAC_ConfigChannel() function.
 198:Drivers/STM32L4xx_HAL_Driver/Src/stm32l4xx_hal_dac.c ****       (+) Enable the DAC channel using HAL_DAC_Start() or HAL_DAC_Start_DMA() functions.
 199:Drivers/STM32L4xx_HAL_Driver/Src/stm32l4xx_hal_dac.c **** 
 200:Drivers/STM32L4xx_HAL_Driver/Src/stm32l4xx_hal_dac.c ****      *** Calibration mode IO operation ***
ARM GAS  /tmp/ccNKo9M1.s 			page 5


 201:Drivers/STM32L4xx_HAL_Driver/Src/stm32l4xx_hal_dac.c ****      ======================================
 202:Drivers/STM32L4xx_HAL_Driver/Src/stm32l4xx_hal_dac.c ****      [..]
 203:Drivers/STM32L4xx_HAL_Driver/Src/stm32l4xx_hal_dac.c ****        (+) Retrieve the factory trimming (calibration settings) using HAL_DACEx_GetTrimOffset()
 204:Drivers/STM32L4xx_HAL_Driver/Src/stm32l4xx_hal_dac.c ****        (+) Run the calibration using HAL_DACEx_SelfCalibrate()
 205:Drivers/STM32L4xx_HAL_Driver/Src/stm32l4xx_hal_dac.c ****        (+) Update the trimming while DAC running using HAL_DACEx_SetUserTrimming()
 206:Drivers/STM32L4xx_HAL_Driver/Src/stm32l4xx_hal_dac.c **** 
 207:Drivers/STM32L4xx_HAL_Driver/Src/stm32l4xx_hal_dac.c ****      *** Polling mode IO operation ***
 208:Drivers/STM32L4xx_HAL_Driver/Src/stm32l4xx_hal_dac.c ****      =================================
 209:Drivers/STM32L4xx_HAL_Driver/Src/stm32l4xx_hal_dac.c ****      [..]
 210:Drivers/STM32L4xx_HAL_Driver/Src/stm32l4xx_hal_dac.c ****        (+) Start the DAC peripheral using HAL_DAC_Start()
 211:Drivers/STM32L4xx_HAL_Driver/Src/stm32l4xx_hal_dac.c ****        (+) To read the DAC last data output value, use the HAL_DAC_GetValue() function.
 212:Drivers/STM32L4xx_HAL_Driver/Src/stm32l4xx_hal_dac.c ****        (+) Stop the DAC peripheral using HAL_DAC_Stop()
 213:Drivers/STM32L4xx_HAL_Driver/Src/stm32l4xx_hal_dac.c **** 
 214:Drivers/STM32L4xx_HAL_Driver/Src/stm32l4xx_hal_dac.c ****      *** DMA mode IO operation ***
 215:Drivers/STM32L4xx_HAL_Driver/Src/stm32l4xx_hal_dac.c ****      ==============================
 216:Drivers/STM32L4xx_HAL_Driver/Src/stm32l4xx_hal_dac.c ****      [..]
 217:Drivers/STM32L4xx_HAL_Driver/Src/stm32l4xx_hal_dac.c ****        (+) Start the DAC peripheral using HAL_DAC_Start_DMA(), at this stage the user specify the l
 218:Drivers/STM32L4xx_HAL_Driver/Src/stm32l4xx_hal_dac.c ****            of data to be transferred at each end of conversion
 219:Drivers/STM32L4xx_HAL_Driver/Src/stm32l4xx_hal_dac.c ****            First issued trigger will start the conversion of the value previously set by HAL_DAC_Se
 220:Drivers/STM32L4xx_HAL_Driver/Src/stm32l4xx_hal_dac.c ****        (+) At the middle of data transfer HAL_DAC_ConvHalfCpltCallbackCh1() or HAL_DACEx_ConvHalfCp
 221:Drivers/STM32L4xx_HAL_Driver/Src/stm32l4xx_hal_dac.c ****            function is executed and user can add his own code by customization of function pointer
 222:Drivers/STM32L4xx_HAL_Driver/Src/stm32l4xx_hal_dac.c ****            HAL_DAC_ConvHalfCpltCallbackCh1() or HAL_DACEx_ConvHalfCpltCallbackCh2()
 223:Drivers/STM32L4xx_HAL_Driver/Src/stm32l4xx_hal_dac.c ****        (+) At The end of data transfer HAL_DAC_ConvCpltCallbackCh1() or HAL_DACEx_ConvHalfCpltCallb
 224:Drivers/STM32L4xx_HAL_Driver/Src/stm32l4xx_hal_dac.c ****            function is executed and user can add his own code by customization of function pointer
 225:Drivers/STM32L4xx_HAL_Driver/Src/stm32l4xx_hal_dac.c ****            HAL_DAC_ConvCpltCallbackCh1() or HAL_DACEx_ConvHalfCpltCallbackCh2()
 226:Drivers/STM32L4xx_HAL_Driver/Src/stm32l4xx_hal_dac.c ****        (+) In case of transfer Error, HAL_DAC_ErrorCallbackCh1() function is executed and user can
 227:Drivers/STM32L4xx_HAL_Driver/Src/stm32l4xx_hal_dac.c ****             add his own code by customization of function pointer HAL_DAC_ErrorCallbackCh1
 228:Drivers/STM32L4xx_HAL_Driver/Src/stm32l4xx_hal_dac.c ****        (+) In case of DMA underrun, DAC interruption triggers and execute internal function HAL_DAC
 229:Drivers/STM32L4xx_HAL_Driver/Src/stm32l4xx_hal_dac.c ****            HAL_DAC_DMAUnderrunCallbackCh1() or HAL_DACEx_DMAUnderrunCallbackCh2()
 230:Drivers/STM32L4xx_HAL_Driver/Src/stm32l4xx_hal_dac.c ****            function is executed and user can add his own code by customization of function pointer
 231:Drivers/STM32L4xx_HAL_Driver/Src/stm32l4xx_hal_dac.c ****            HAL_DAC_DMAUnderrunCallbackCh1() or HAL_DACEx_DMAUnderrunCallbackCh2() and
 232:Drivers/STM32L4xx_HAL_Driver/Src/stm32l4xx_hal_dac.c ****            add his own code by customization of function pointer HAL_DAC_ErrorCallbackCh1()
 233:Drivers/STM32L4xx_HAL_Driver/Src/stm32l4xx_hal_dac.c ****        (+) Stop the DAC peripheral using HAL_DAC_Stop_DMA()
 234:Drivers/STM32L4xx_HAL_Driver/Src/stm32l4xx_hal_dac.c **** 
 235:Drivers/STM32L4xx_HAL_Driver/Src/stm32l4xx_hal_dac.c ****     *** Callback registration ***
 236:Drivers/STM32L4xx_HAL_Driver/Src/stm32l4xx_hal_dac.c ****     =============================================
 237:Drivers/STM32L4xx_HAL_Driver/Src/stm32l4xx_hal_dac.c ****     [..]
 238:Drivers/STM32L4xx_HAL_Driver/Src/stm32l4xx_hal_dac.c ****       The compilation define  USE_HAL_DAC_REGISTER_CALLBACKS when set to 1
 239:Drivers/STM32L4xx_HAL_Driver/Src/stm32l4xx_hal_dac.c ****       allows the user to configure dynamically the driver callbacks.
 240:Drivers/STM32L4xx_HAL_Driver/Src/stm32l4xx_hal_dac.c **** 
 241:Drivers/STM32L4xx_HAL_Driver/Src/stm32l4xx_hal_dac.c ****     Use Functions @ref HAL_DAC_RegisterCallback() to register a user callback,
 242:Drivers/STM32L4xx_HAL_Driver/Src/stm32l4xx_hal_dac.c ****       it allows to register following callbacks:
 243:Drivers/STM32L4xx_HAL_Driver/Src/stm32l4xx_hal_dac.c ****       (+) ConvCpltCallbackCh1     : callback when a half transfer is completed on Ch1.
 244:Drivers/STM32L4xx_HAL_Driver/Src/stm32l4xx_hal_dac.c ****       (+) ConvHalfCpltCallbackCh1 : callback when a transfer is completed on Ch1.
 245:Drivers/STM32L4xx_HAL_Driver/Src/stm32l4xx_hal_dac.c ****       (+) ErrorCallbackCh1        : callback when an error occurs on Ch1.
 246:Drivers/STM32L4xx_HAL_Driver/Src/stm32l4xx_hal_dac.c ****       (+) DMAUnderrunCallbackCh1  : callback when an underrun error occurs on Ch1.
 247:Drivers/STM32L4xx_HAL_Driver/Src/stm32l4xx_hal_dac.c ****       (+) ConvCpltCallbackCh2     : callback when a half transfer is completed on Ch2.
 248:Drivers/STM32L4xx_HAL_Driver/Src/stm32l4xx_hal_dac.c ****       (+) ConvHalfCpltCallbackCh2 : callback when a transfer is completed on Ch2.
 249:Drivers/STM32L4xx_HAL_Driver/Src/stm32l4xx_hal_dac.c ****       (+) ErrorCallbackCh2        : callback when an error occurs on Ch2.
 250:Drivers/STM32L4xx_HAL_Driver/Src/stm32l4xx_hal_dac.c ****       (+) DMAUnderrunCallbackCh2  : callback when an underrun error occurs on Ch2.
 251:Drivers/STM32L4xx_HAL_Driver/Src/stm32l4xx_hal_dac.c ****       (+) MspInitCallback         : DAC MspInit.
 252:Drivers/STM32L4xx_HAL_Driver/Src/stm32l4xx_hal_dac.c ****       (+) MspDeInitCallback       : DAC MspdeInit.
 253:Drivers/STM32L4xx_HAL_Driver/Src/stm32l4xx_hal_dac.c ****       This function takes as parameters the HAL peripheral handle, the Callback ID
 254:Drivers/STM32L4xx_HAL_Driver/Src/stm32l4xx_hal_dac.c ****       and a pointer to the user callback function.
 255:Drivers/STM32L4xx_HAL_Driver/Src/stm32l4xx_hal_dac.c **** 
 256:Drivers/STM32L4xx_HAL_Driver/Src/stm32l4xx_hal_dac.c ****     Use function @ref HAL_DAC_UnRegisterCallback() to reset a callback to the default
 257:Drivers/STM32L4xx_HAL_Driver/Src/stm32l4xx_hal_dac.c ****       weak (surcharged) function. It allows to reset following callbacks:
ARM GAS  /tmp/ccNKo9M1.s 			page 6


 258:Drivers/STM32L4xx_HAL_Driver/Src/stm32l4xx_hal_dac.c ****       (+) ConvCpltCallbackCh1     : callback when a half transfer is completed on Ch1.
 259:Drivers/STM32L4xx_HAL_Driver/Src/stm32l4xx_hal_dac.c ****       (+) ConvHalfCpltCallbackCh1 : callback when a transfer is completed on Ch1.
 260:Drivers/STM32L4xx_HAL_Driver/Src/stm32l4xx_hal_dac.c ****       (+) ErrorCallbackCh1        : callback when an error occurs on Ch1.
 261:Drivers/STM32L4xx_HAL_Driver/Src/stm32l4xx_hal_dac.c ****       (+) DMAUnderrunCallbackCh1  : callback when an underrun error occurs on Ch1.
 262:Drivers/STM32L4xx_HAL_Driver/Src/stm32l4xx_hal_dac.c ****       (+) ConvCpltCallbackCh2     : callback when a half transfer is completed on Ch2.
 263:Drivers/STM32L4xx_HAL_Driver/Src/stm32l4xx_hal_dac.c ****       (+) ConvHalfCpltCallbackCh2 : callback when a transfer is completed on Ch2.
 264:Drivers/STM32L4xx_HAL_Driver/Src/stm32l4xx_hal_dac.c ****       (+) ErrorCallbackCh2        : callback when an error occurs on Ch2.
 265:Drivers/STM32L4xx_HAL_Driver/Src/stm32l4xx_hal_dac.c ****       (+) DMAUnderrunCallbackCh2  : callback when an underrun error occurs on Ch2.
 266:Drivers/STM32L4xx_HAL_Driver/Src/stm32l4xx_hal_dac.c ****       (+) MspInitCallback         : DAC MspInit.
 267:Drivers/STM32L4xx_HAL_Driver/Src/stm32l4xx_hal_dac.c ****       (+) MspDeInitCallback       : DAC MspdeInit.
 268:Drivers/STM32L4xx_HAL_Driver/Src/stm32l4xx_hal_dac.c ****       (+) All Callbacks
 269:Drivers/STM32L4xx_HAL_Driver/Src/stm32l4xx_hal_dac.c ****       This function) takes as parameters the HAL peripheral handle and the Callback ID.
 270:Drivers/STM32L4xx_HAL_Driver/Src/stm32l4xx_hal_dac.c **** 
 271:Drivers/STM32L4xx_HAL_Driver/Src/stm32l4xx_hal_dac.c ****       By default, after the @ref HAL_DAC_Init and if the state is HAL_DAC_STATE_RESET
 272:Drivers/STM32L4xx_HAL_Driver/Src/stm32l4xx_hal_dac.c ****       all callbacks are reset to the corresponding legacy weak (surcharged) functions.
 273:Drivers/STM32L4xx_HAL_Driver/Src/stm32l4xx_hal_dac.c ****       Exception done for MspInit and MspDeInit callbacks that are respectively
 274:Drivers/STM32L4xx_HAL_Driver/Src/stm32l4xx_hal_dac.c ****       reset to the legacy weak (surcharged) functions in the @ref HAL_DAC_Init
 275:Drivers/STM32L4xx_HAL_Driver/Src/stm32l4xx_hal_dac.c ****       and @ref  HAL_DAC_DeInit only when these callbacks are null (not registered beforehand).
 276:Drivers/STM32L4xx_HAL_Driver/Src/stm32l4xx_hal_dac.c ****       If not, MspInit or MspDeInit are not null, the @ref HAL_DAC_Init and @ref HAL_DAC_DeInit
 277:Drivers/STM32L4xx_HAL_Driver/Src/stm32l4xx_hal_dac.c ****       keep and use the user MspInit/MspDeInit callbacks (registered beforehand)
 278:Drivers/STM32L4xx_HAL_Driver/Src/stm32l4xx_hal_dac.c **** 
 279:Drivers/STM32L4xx_HAL_Driver/Src/stm32l4xx_hal_dac.c ****       Callbacks can be registered/unregistered in READY state only.
 280:Drivers/STM32L4xx_HAL_Driver/Src/stm32l4xx_hal_dac.c ****       Exception done for MspInit/MspDeInit callbacks that can be registered/unregistered
 281:Drivers/STM32L4xx_HAL_Driver/Src/stm32l4xx_hal_dac.c ****       in READY or RESET state, thus registered (user) MspInit/DeInit callbacks can be used
 282:Drivers/STM32L4xx_HAL_Driver/Src/stm32l4xx_hal_dac.c ****       during the Init/DeInit.
 283:Drivers/STM32L4xx_HAL_Driver/Src/stm32l4xx_hal_dac.c ****       In that case first register the MspInit/MspDeInit user callbacks
 284:Drivers/STM32L4xx_HAL_Driver/Src/stm32l4xx_hal_dac.c ****       using @ref HAL_DAC_RegisterCallback before calling @ref HAL_DAC_DeInit
 285:Drivers/STM32L4xx_HAL_Driver/Src/stm32l4xx_hal_dac.c ****       or @ref HAL_DAC_Init function.
 286:Drivers/STM32L4xx_HAL_Driver/Src/stm32l4xx_hal_dac.c **** 
 287:Drivers/STM32L4xx_HAL_Driver/Src/stm32l4xx_hal_dac.c ****       When The compilation define USE_HAL_DAC_REGISTER_CALLBACKS is set to 0 or
 288:Drivers/STM32L4xx_HAL_Driver/Src/stm32l4xx_hal_dac.c ****       not defined, the callback registering feature is not available
 289:Drivers/STM32L4xx_HAL_Driver/Src/stm32l4xx_hal_dac.c ****       and weak (surcharged) callbacks are used.
 290:Drivers/STM32L4xx_HAL_Driver/Src/stm32l4xx_hal_dac.c **** 
 291:Drivers/STM32L4xx_HAL_Driver/Src/stm32l4xx_hal_dac.c ****      *** DAC HAL driver macros list ***
 292:Drivers/STM32L4xx_HAL_Driver/Src/stm32l4xx_hal_dac.c ****      =============================================
 293:Drivers/STM32L4xx_HAL_Driver/Src/stm32l4xx_hal_dac.c ****      [..]
 294:Drivers/STM32L4xx_HAL_Driver/Src/stm32l4xx_hal_dac.c ****        Below the list of most used macros in DAC HAL driver.
 295:Drivers/STM32L4xx_HAL_Driver/Src/stm32l4xx_hal_dac.c **** 
 296:Drivers/STM32L4xx_HAL_Driver/Src/stm32l4xx_hal_dac.c ****       (+) __HAL_DAC_ENABLE : Enable the DAC peripheral
 297:Drivers/STM32L4xx_HAL_Driver/Src/stm32l4xx_hal_dac.c ****       (+) __HAL_DAC_DISABLE : Disable the DAC peripheral
 298:Drivers/STM32L4xx_HAL_Driver/Src/stm32l4xx_hal_dac.c ****       (+) __HAL_DAC_CLEAR_FLAG: Clear the DAC's pending flags
 299:Drivers/STM32L4xx_HAL_Driver/Src/stm32l4xx_hal_dac.c ****       (+) __HAL_DAC_GET_FLAG: Get the selected DAC's flag status
 300:Drivers/STM32L4xx_HAL_Driver/Src/stm32l4xx_hal_dac.c **** 
 301:Drivers/STM32L4xx_HAL_Driver/Src/stm32l4xx_hal_dac.c ****      [..]
 302:Drivers/STM32L4xx_HAL_Driver/Src/stm32l4xx_hal_dac.c ****       (@) You can refer to the DAC HAL driver header file for more useful macros
 303:Drivers/STM32L4xx_HAL_Driver/Src/stm32l4xx_hal_dac.c **** 
 304:Drivers/STM32L4xx_HAL_Driver/Src/stm32l4xx_hal_dac.c ****  @endverbatim
 305:Drivers/STM32L4xx_HAL_Driver/Src/stm32l4xx_hal_dac.c ****   ******************************************************************************
 306:Drivers/STM32L4xx_HAL_Driver/Src/stm32l4xx_hal_dac.c ****   * @attention
 307:Drivers/STM32L4xx_HAL_Driver/Src/stm32l4xx_hal_dac.c ****   *
 308:Drivers/STM32L4xx_HAL_Driver/Src/stm32l4xx_hal_dac.c ****   * <h2><center>&copy; Copyright (c) 2017 STMicroelectronics.
 309:Drivers/STM32L4xx_HAL_Driver/Src/stm32l4xx_hal_dac.c ****   * All rights reserved.</center></h2>
 310:Drivers/STM32L4xx_HAL_Driver/Src/stm32l4xx_hal_dac.c ****   *
 311:Drivers/STM32L4xx_HAL_Driver/Src/stm32l4xx_hal_dac.c ****   * This software component is licensed by ST under BSD 3-Clause license,
 312:Drivers/STM32L4xx_HAL_Driver/Src/stm32l4xx_hal_dac.c ****   * the "License"; You may not use this file except in compliance with the
 313:Drivers/STM32L4xx_HAL_Driver/Src/stm32l4xx_hal_dac.c ****   * License. You may obtain a copy of the License at:
 314:Drivers/STM32L4xx_HAL_Driver/Src/stm32l4xx_hal_dac.c ****   *                        opensource.org/licenses/BSD-3-Clause
ARM GAS  /tmp/ccNKo9M1.s 			page 7


 315:Drivers/STM32L4xx_HAL_Driver/Src/stm32l4xx_hal_dac.c ****   *
 316:Drivers/STM32L4xx_HAL_Driver/Src/stm32l4xx_hal_dac.c ****   ******************************************************************************
 317:Drivers/STM32L4xx_HAL_Driver/Src/stm32l4xx_hal_dac.c ****   */
 318:Drivers/STM32L4xx_HAL_Driver/Src/stm32l4xx_hal_dac.c **** 
 319:Drivers/STM32L4xx_HAL_Driver/Src/stm32l4xx_hal_dac.c **** /* Includes ------------------------------------------------------------------*/
 320:Drivers/STM32L4xx_HAL_Driver/Src/stm32l4xx_hal_dac.c **** #include "stm32l4xx_hal.h"
 321:Drivers/STM32L4xx_HAL_Driver/Src/stm32l4xx_hal_dac.c **** 
 322:Drivers/STM32L4xx_HAL_Driver/Src/stm32l4xx_hal_dac.c **** /** @addtogroup STM32L4xx_HAL_Driver
 323:Drivers/STM32L4xx_HAL_Driver/Src/stm32l4xx_hal_dac.c ****   * @{
 324:Drivers/STM32L4xx_HAL_Driver/Src/stm32l4xx_hal_dac.c ****   */
 325:Drivers/STM32L4xx_HAL_Driver/Src/stm32l4xx_hal_dac.c **** 
 326:Drivers/STM32L4xx_HAL_Driver/Src/stm32l4xx_hal_dac.c **** #ifdef HAL_DAC_MODULE_ENABLED
 327:Drivers/STM32L4xx_HAL_Driver/Src/stm32l4xx_hal_dac.c **** #if defined(DAC1)
 328:Drivers/STM32L4xx_HAL_Driver/Src/stm32l4xx_hal_dac.c **** 
 329:Drivers/STM32L4xx_HAL_Driver/Src/stm32l4xx_hal_dac.c ****   /** @defgroup DAC DAC
 330:Drivers/STM32L4xx_HAL_Driver/Src/stm32l4xx_hal_dac.c ****   * @brief DAC driver modules
 331:Drivers/STM32L4xx_HAL_Driver/Src/stm32l4xx_hal_dac.c ****   * @{
 332:Drivers/STM32L4xx_HAL_Driver/Src/stm32l4xx_hal_dac.c ****   */
 333:Drivers/STM32L4xx_HAL_Driver/Src/stm32l4xx_hal_dac.c **** 
 334:Drivers/STM32L4xx_HAL_Driver/Src/stm32l4xx_hal_dac.c **** /* Private typedef -----------------------------------------------------------*/
 335:Drivers/STM32L4xx_HAL_Driver/Src/stm32l4xx_hal_dac.c **** /* Private define ------------------------------------------------------------*/
 336:Drivers/STM32L4xx_HAL_Driver/Src/stm32l4xx_hal_dac.c **** /* Private constants ---------------------------------------------------------*/
 337:Drivers/STM32L4xx_HAL_Driver/Src/stm32l4xx_hal_dac.c **** /** @addtogroup DAC_Private_Constants DAC Private Constants
 338:Drivers/STM32L4xx_HAL_Driver/Src/stm32l4xx_hal_dac.c ****   * @{
 339:Drivers/STM32L4xx_HAL_Driver/Src/stm32l4xx_hal_dac.c ****   */
 340:Drivers/STM32L4xx_HAL_Driver/Src/stm32l4xx_hal_dac.c **** #define TIMEOUT_DAC_CALIBCONFIG        1U         /* 1   ms        */
 341:Drivers/STM32L4xx_HAL_Driver/Src/stm32l4xx_hal_dac.c **** #define HFSEL_ENABLE_THRESHOLD_80MHZ   80000000U  /* 80 MHz        */
 342:Drivers/STM32L4xx_HAL_Driver/Src/stm32l4xx_hal_dac.c **** 
 343:Drivers/STM32L4xx_HAL_Driver/Src/stm32l4xx_hal_dac.c **** /**
 344:Drivers/STM32L4xx_HAL_Driver/Src/stm32l4xx_hal_dac.c ****   * @}
 345:Drivers/STM32L4xx_HAL_Driver/Src/stm32l4xx_hal_dac.c ****   */
 346:Drivers/STM32L4xx_HAL_Driver/Src/stm32l4xx_hal_dac.c **** 
 347:Drivers/STM32L4xx_HAL_Driver/Src/stm32l4xx_hal_dac.c **** /* Private macro -------------------------------------------------------------*/
 348:Drivers/STM32L4xx_HAL_Driver/Src/stm32l4xx_hal_dac.c **** /* Private variables ---------------------------------------------------------*/
 349:Drivers/STM32L4xx_HAL_Driver/Src/stm32l4xx_hal_dac.c **** /* Private function prototypes -----------------------------------------------*/
 350:Drivers/STM32L4xx_HAL_Driver/Src/stm32l4xx_hal_dac.c **** /* Exported functions -------------------------------------------------------*/
 351:Drivers/STM32L4xx_HAL_Driver/Src/stm32l4xx_hal_dac.c **** 
 352:Drivers/STM32L4xx_HAL_Driver/Src/stm32l4xx_hal_dac.c **** /** @defgroup DAC_Exported_Functions DAC Exported Functions
 353:Drivers/STM32L4xx_HAL_Driver/Src/stm32l4xx_hal_dac.c ****   * @{
 354:Drivers/STM32L4xx_HAL_Driver/Src/stm32l4xx_hal_dac.c ****   */
 355:Drivers/STM32L4xx_HAL_Driver/Src/stm32l4xx_hal_dac.c **** 
 356:Drivers/STM32L4xx_HAL_Driver/Src/stm32l4xx_hal_dac.c **** /** @defgroup DAC_Exported_Functions_Group1 Initialization and de-initialization functions
 357:Drivers/STM32L4xx_HAL_Driver/Src/stm32l4xx_hal_dac.c ****  *  @brief    Initialization and Configuration functions
 358:Drivers/STM32L4xx_HAL_Driver/Src/stm32l4xx_hal_dac.c ****  *
 359:Drivers/STM32L4xx_HAL_Driver/Src/stm32l4xx_hal_dac.c **** @verbatim
 360:Drivers/STM32L4xx_HAL_Driver/Src/stm32l4xx_hal_dac.c ****   ==============================================================================
 361:Drivers/STM32L4xx_HAL_Driver/Src/stm32l4xx_hal_dac.c ****               ##### Initialization and de-initialization functions #####
 362:Drivers/STM32L4xx_HAL_Driver/Src/stm32l4xx_hal_dac.c ****   ==============================================================================
 363:Drivers/STM32L4xx_HAL_Driver/Src/stm32l4xx_hal_dac.c ****     [..]  This section provides functions allowing to:
 364:Drivers/STM32L4xx_HAL_Driver/Src/stm32l4xx_hal_dac.c ****       (+) Initialize and configure the DAC.
 365:Drivers/STM32L4xx_HAL_Driver/Src/stm32l4xx_hal_dac.c ****       (+) De-initialize the DAC.
 366:Drivers/STM32L4xx_HAL_Driver/Src/stm32l4xx_hal_dac.c **** 
 367:Drivers/STM32L4xx_HAL_Driver/Src/stm32l4xx_hal_dac.c **** @endverbatim
 368:Drivers/STM32L4xx_HAL_Driver/Src/stm32l4xx_hal_dac.c ****   * @{
 369:Drivers/STM32L4xx_HAL_Driver/Src/stm32l4xx_hal_dac.c ****   */
 370:Drivers/STM32L4xx_HAL_Driver/Src/stm32l4xx_hal_dac.c **** 
 371:Drivers/STM32L4xx_HAL_Driver/Src/stm32l4xx_hal_dac.c **** /**
ARM GAS  /tmp/ccNKo9M1.s 			page 8


 372:Drivers/STM32L4xx_HAL_Driver/Src/stm32l4xx_hal_dac.c ****   * @brief  Initialize the DAC peripheral according to the specified parameters
 373:Drivers/STM32L4xx_HAL_Driver/Src/stm32l4xx_hal_dac.c ****   *         in the DAC_InitStruct and initialize the associated handle.
 374:Drivers/STM32L4xx_HAL_Driver/Src/stm32l4xx_hal_dac.c ****   * @param  hdac pointer to a DAC_HandleTypeDef structure that contains
 375:Drivers/STM32L4xx_HAL_Driver/Src/stm32l4xx_hal_dac.c ****   *         the configuration information for the specified DAC.
 376:Drivers/STM32L4xx_HAL_Driver/Src/stm32l4xx_hal_dac.c ****   * @retval HAL status
 377:Drivers/STM32L4xx_HAL_Driver/Src/stm32l4xx_hal_dac.c ****   */
 378:Drivers/STM32L4xx_HAL_Driver/Src/stm32l4xx_hal_dac.c **** HAL_StatusTypeDef HAL_DAC_Init(DAC_HandleTypeDef *hdac)
 379:Drivers/STM32L4xx_HAL_Driver/Src/stm32l4xx_hal_dac.c **** {
 380:Drivers/STM32L4xx_HAL_Driver/Src/stm32l4xx_hal_dac.c ****   /* Check DAC handle */
 381:Drivers/STM32L4xx_HAL_Driver/Src/stm32l4xx_hal_dac.c ****   if (hdac == NULL)
 382:Drivers/STM32L4xx_HAL_Driver/Src/stm32l4xx_hal_dac.c ****   {
 383:Drivers/STM32L4xx_HAL_Driver/Src/stm32l4xx_hal_dac.c ****      return HAL_ERROR;
 384:Drivers/STM32L4xx_HAL_Driver/Src/stm32l4xx_hal_dac.c ****   }
 385:Drivers/STM32L4xx_HAL_Driver/Src/stm32l4xx_hal_dac.c ****   /* Check the parameters */
 386:Drivers/STM32L4xx_HAL_Driver/Src/stm32l4xx_hal_dac.c ****   assert_param(IS_DAC_ALL_INSTANCE(hdac->Instance));
 387:Drivers/STM32L4xx_HAL_Driver/Src/stm32l4xx_hal_dac.c **** 
 388:Drivers/STM32L4xx_HAL_Driver/Src/stm32l4xx_hal_dac.c ****   if (hdac->State == HAL_DAC_STATE_RESET)
 389:Drivers/STM32L4xx_HAL_Driver/Src/stm32l4xx_hal_dac.c ****   {
 390:Drivers/STM32L4xx_HAL_Driver/Src/stm32l4xx_hal_dac.c **** #if (USE_HAL_DAC_REGISTER_CALLBACKS == 1)
 391:Drivers/STM32L4xx_HAL_Driver/Src/stm32l4xx_hal_dac.c ****     /* Init the DAC Callback settings */
 392:Drivers/STM32L4xx_HAL_Driver/Src/stm32l4xx_hal_dac.c ****     hdac->ConvCpltCallbackCh1           = HAL_DAC_ConvCpltCallbackCh1;
 393:Drivers/STM32L4xx_HAL_Driver/Src/stm32l4xx_hal_dac.c ****     hdac->ConvHalfCpltCallbackCh1       = HAL_DAC_ConvHalfCpltCallbackCh1;
 394:Drivers/STM32L4xx_HAL_Driver/Src/stm32l4xx_hal_dac.c ****     hdac->ErrorCallbackCh1              = HAL_DAC_ErrorCallbackCh1;
 395:Drivers/STM32L4xx_HAL_Driver/Src/stm32l4xx_hal_dac.c ****     hdac->DMAUnderrunCallbackCh1        = HAL_DAC_DMAUnderrunCallbackCh1;
 396:Drivers/STM32L4xx_HAL_Driver/Src/stm32l4xx_hal_dac.c **** 
 397:Drivers/STM32L4xx_HAL_Driver/Src/stm32l4xx_hal_dac.c **** #if defined (STM32L431xx) || defined (STM32L432xx) || defined (STM32L433xx) || defined (STM32L442xx
 398:Drivers/STM32L4xx_HAL_Driver/Src/stm32l4xx_hal_dac.c ****     defined (STM32L471xx) || defined (STM32L475xx) || defined (STM32L476xx) || defined (STM32L485xx
 399:Drivers/STM32L4xx_HAL_Driver/Src/stm32l4xx_hal_dac.c ****     defined (STM32L4P5xx) || defined (STM32L4Q5xx) || \
 400:Drivers/STM32L4xx_HAL_Driver/Src/stm32l4xx_hal_dac.c ****     defined (STM32L4R5xx) || defined (STM32L4R7xx) || defined (STM32L4R9xx) || defined (STM32L4S5xx
 401:Drivers/STM32L4xx_HAL_Driver/Src/stm32l4xx_hal_dac.c ****     hdac->ConvCpltCallbackCh2           = HAL_DACEx_ConvCpltCallbackCh2;
 402:Drivers/STM32L4xx_HAL_Driver/Src/stm32l4xx_hal_dac.c ****     hdac->ConvHalfCpltCallbackCh2       = HAL_DACEx_ConvHalfCpltCallbackCh2;
 403:Drivers/STM32L4xx_HAL_Driver/Src/stm32l4xx_hal_dac.c ****     hdac->ErrorCallbackCh2              = HAL_DACEx_ErrorCallbackCh2;
 404:Drivers/STM32L4xx_HAL_Driver/Src/stm32l4xx_hal_dac.c ****     hdac->DMAUnderrunCallbackCh2        = HAL_DACEx_DMAUnderrunCallbackCh2;
 405:Drivers/STM32L4xx_HAL_Driver/Src/stm32l4xx_hal_dac.c **** #endif  /* STM32L431xx STM32L432xx STM32L433xx STM32L442xx STM32L443xx                         */
 406:Drivers/STM32L4xx_HAL_Driver/Src/stm32l4xx_hal_dac.c ****         /* STM32L471xx STM32L475xx STM32L476xx STM32L485xx STM32L486xx STM32L496xx STM32L4A6xx */
 407:Drivers/STM32L4xx_HAL_Driver/Src/stm32l4xx_hal_dac.c ****         /* STM32L4P5xx STM32L4Q5xx                                                             */
 408:Drivers/STM32L4xx_HAL_Driver/Src/stm32l4xx_hal_dac.c ****         /* STM32L4R5xx STM32L4R7xx STM32L4R9xx STM32L4S5xx STM32L4S7xx STM32L4S9xx             */
 409:Drivers/STM32L4xx_HAL_Driver/Src/stm32l4xx_hal_dac.c ****     
 410:Drivers/STM32L4xx_HAL_Driver/Src/stm32l4xx_hal_dac.c ****     if (hdac->MspInitCallback == NULL)
 411:Drivers/STM32L4xx_HAL_Driver/Src/stm32l4xx_hal_dac.c ****     {
 412:Drivers/STM32L4xx_HAL_Driver/Src/stm32l4xx_hal_dac.c ****       hdac->MspInitCallback             = HAL_DAC_MspInit;
 413:Drivers/STM32L4xx_HAL_Driver/Src/stm32l4xx_hal_dac.c ****     }
 414:Drivers/STM32L4xx_HAL_Driver/Src/stm32l4xx_hal_dac.c **** #endif /* USE_HAL_DAC_REGISTER_CALLBACKS */
 415:Drivers/STM32L4xx_HAL_Driver/Src/stm32l4xx_hal_dac.c **** 
 416:Drivers/STM32L4xx_HAL_Driver/Src/stm32l4xx_hal_dac.c ****     /* Allocate lock resource and initialize it */
 417:Drivers/STM32L4xx_HAL_Driver/Src/stm32l4xx_hal_dac.c ****     hdac->Lock = HAL_UNLOCKED;
 418:Drivers/STM32L4xx_HAL_Driver/Src/stm32l4xx_hal_dac.c **** 
 419:Drivers/STM32L4xx_HAL_Driver/Src/stm32l4xx_hal_dac.c **** #if (USE_HAL_DAC_REGISTER_CALLBACKS == 1)
 420:Drivers/STM32L4xx_HAL_Driver/Src/stm32l4xx_hal_dac.c ****     /* Init the low level hardware */
 421:Drivers/STM32L4xx_HAL_Driver/Src/stm32l4xx_hal_dac.c ****     hdac->MspInitCallback(hdac);
 422:Drivers/STM32L4xx_HAL_Driver/Src/stm32l4xx_hal_dac.c **** #else
 423:Drivers/STM32L4xx_HAL_Driver/Src/stm32l4xx_hal_dac.c ****     /* Init the low level hardware */
 424:Drivers/STM32L4xx_HAL_Driver/Src/stm32l4xx_hal_dac.c ****     HAL_DAC_MspInit(hdac);
 425:Drivers/STM32L4xx_HAL_Driver/Src/stm32l4xx_hal_dac.c **** #endif /* USE_HAL_DAC_REGISTER_CALLBACKS */
 426:Drivers/STM32L4xx_HAL_Driver/Src/stm32l4xx_hal_dac.c ****   }
 427:Drivers/STM32L4xx_HAL_Driver/Src/stm32l4xx_hal_dac.c **** 
 428:Drivers/STM32L4xx_HAL_Driver/Src/stm32l4xx_hal_dac.c ****   /* Initialize the DAC state*/
ARM GAS  /tmp/ccNKo9M1.s 			page 9


 429:Drivers/STM32L4xx_HAL_Driver/Src/stm32l4xx_hal_dac.c ****   hdac->State = HAL_DAC_STATE_BUSY;
 430:Drivers/STM32L4xx_HAL_Driver/Src/stm32l4xx_hal_dac.c **** 
 431:Drivers/STM32L4xx_HAL_Driver/Src/stm32l4xx_hal_dac.c ****   /* Set DAC error code to none */
 432:Drivers/STM32L4xx_HAL_Driver/Src/stm32l4xx_hal_dac.c ****   hdac->ErrorCode = HAL_DAC_ERROR_NONE;
 433:Drivers/STM32L4xx_HAL_Driver/Src/stm32l4xx_hal_dac.c **** 
 434:Drivers/STM32L4xx_HAL_Driver/Src/stm32l4xx_hal_dac.c ****   /* Initialize the DAC state*/
 435:Drivers/STM32L4xx_HAL_Driver/Src/stm32l4xx_hal_dac.c ****   hdac->State = HAL_DAC_STATE_READY;
 436:Drivers/STM32L4xx_HAL_Driver/Src/stm32l4xx_hal_dac.c **** 
 437:Drivers/STM32L4xx_HAL_Driver/Src/stm32l4xx_hal_dac.c ****   /* Return function status */
 438:Drivers/STM32L4xx_HAL_Driver/Src/stm32l4xx_hal_dac.c ****   return HAL_OK;
 439:Drivers/STM32L4xx_HAL_Driver/Src/stm32l4xx_hal_dac.c **** }
 440:Drivers/STM32L4xx_HAL_Driver/Src/stm32l4xx_hal_dac.c **** 
 441:Drivers/STM32L4xx_HAL_Driver/Src/stm32l4xx_hal_dac.c **** /**
 442:Drivers/STM32L4xx_HAL_Driver/Src/stm32l4xx_hal_dac.c ****   * @brief  Deinitialize the DAC peripheral registers to their default reset values.
 443:Drivers/STM32L4xx_HAL_Driver/Src/stm32l4xx_hal_dac.c ****   * @param  hdac pointer to a DAC_HandleTypeDef structure that contains
 444:Drivers/STM32L4xx_HAL_Driver/Src/stm32l4xx_hal_dac.c ****   *         the configuration information for the specified DAC.
 445:Drivers/STM32L4xx_HAL_Driver/Src/stm32l4xx_hal_dac.c ****   * @retval HAL status
 446:Drivers/STM32L4xx_HAL_Driver/Src/stm32l4xx_hal_dac.c ****   */
 447:Drivers/STM32L4xx_HAL_Driver/Src/stm32l4xx_hal_dac.c **** HAL_StatusTypeDef HAL_DAC_DeInit(DAC_HandleTypeDef *hdac)
 448:Drivers/STM32L4xx_HAL_Driver/Src/stm32l4xx_hal_dac.c **** {
 449:Drivers/STM32L4xx_HAL_Driver/Src/stm32l4xx_hal_dac.c ****   /* Check DAC handle */
 450:Drivers/STM32L4xx_HAL_Driver/Src/stm32l4xx_hal_dac.c ****   if (hdac == NULL)
 451:Drivers/STM32L4xx_HAL_Driver/Src/stm32l4xx_hal_dac.c ****   {
 452:Drivers/STM32L4xx_HAL_Driver/Src/stm32l4xx_hal_dac.c ****     return HAL_ERROR;
 453:Drivers/STM32L4xx_HAL_Driver/Src/stm32l4xx_hal_dac.c ****   }
 454:Drivers/STM32L4xx_HAL_Driver/Src/stm32l4xx_hal_dac.c **** 
 455:Drivers/STM32L4xx_HAL_Driver/Src/stm32l4xx_hal_dac.c ****   /* Check the parameters */
 456:Drivers/STM32L4xx_HAL_Driver/Src/stm32l4xx_hal_dac.c ****   assert_param(IS_DAC_ALL_INSTANCE(hdac->Instance));
 457:Drivers/STM32L4xx_HAL_Driver/Src/stm32l4xx_hal_dac.c **** 
 458:Drivers/STM32L4xx_HAL_Driver/Src/stm32l4xx_hal_dac.c ****   /* Change DAC state */
 459:Drivers/STM32L4xx_HAL_Driver/Src/stm32l4xx_hal_dac.c ****   hdac->State = HAL_DAC_STATE_BUSY;
 460:Drivers/STM32L4xx_HAL_Driver/Src/stm32l4xx_hal_dac.c **** 
 461:Drivers/STM32L4xx_HAL_Driver/Src/stm32l4xx_hal_dac.c **** #if (USE_HAL_DAC_REGISTER_CALLBACKS == 1)
 462:Drivers/STM32L4xx_HAL_Driver/Src/stm32l4xx_hal_dac.c ****   if (hdac->MspDeInitCallback == NULL)
 463:Drivers/STM32L4xx_HAL_Driver/Src/stm32l4xx_hal_dac.c ****   {
 464:Drivers/STM32L4xx_HAL_Driver/Src/stm32l4xx_hal_dac.c ****     hdac->MspDeInitCallback = HAL_DAC_MspDeInit;
 465:Drivers/STM32L4xx_HAL_Driver/Src/stm32l4xx_hal_dac.c ****   }
 466:Drivers/STM32L4xx_HAL_Driver/Src/stm32l4xx_hal_dac.c ****   /* DeInit the low level hardware */
 467:Drivers/STM32L4xx_HAL_Driver/Src/stm32l4xx_hal_dac.c ****   hdac->MspDeInitCallback(hdac);
 468:Drivers/STM32L4xx_HAL_Driver/Src/stm32l4xx_hal_dac.c **** #else
 469:Drivers/STM32L4xx_HAL_Driver/Src/stm32l4xx_hal_dac.c ****   /* DeInit the low level hardware */
 470:Drivers/STM32L4xx_HAL_Driver/Src/stm32l4xx_hal_dac.c ****   HAL_DAC_MspDeInit(hdac);
 471:Drivers/STM32L4xx_HAL_Driver/Src/stm32l4xx_hal_dac.c **** #endif /* USE_HAL_DAC_REGISTER_CALLBACKS */
 472:Drivers/STM32L4xx_HAL_Driver/Src/stm32l4xx_hal_dac.c **** 
 473:Drivers/STM32L4xx_HAL_Driver/Src/stm32l4xx_hal_dac.c ****   /* Set DAC error code to none */
 474:Drivers/STM32L4xx_HAL_Driver/Src/stm32l4xx_hal_dac.c ****   hdac->ErrorCode = HAL_DAC_ERROR_NONE;
 475:Drivers/STM32L4xx_HAL_Driver/Src/stm32l4xx_hal_dac.c **** 
 476:Drivers/STM32L4xx_HAL_Driver/Src/stm32l4xx_hal_dac.c ****   /* Change DAC state */
 477:Drivers/STM32L4xx_HAL_Driver/Src/stm32l4xx_hal_dac.c ****   hdac->State = HAL_DAC_STATE_RESET;
 478:Drivers/STM32L4xx_HAL_Driver/Src/stm32l4xx_hal_dac.c **** 
 479:Drivers/STM32L4xx_HAL_Driver/Src/stm32l4xx_hal_dac.c ****   /* Release Lock */
 480:Drivers/STM32L4xx_HAL_Driver/Src/stm32l4xx_hal_dac.c ****   __HAL_UNLOCK(hdac);
 481:Drivers/STM32L4xx_HAL_Driver/Src/stm32l4xx_hal_dac.c **** 
 482:Drivers/STM32L4xx_HAL_Driver/Src/stm32l4xx_hal_dac.c ****   /* Return function status */
 483:Drivers/STM32L4xx_HAL_Driver/Src/stm32l4xx_hal_dac.c ****   return HAL_OK;
 484:Drivers/STM32L4xx_HAL_Driver/Src/stm32l4xx_hal_dac.c **** }
 485:Drivers/STM32L4xx_HAL_Driver/Src/stm32l4xx_hal_dac.c **** 
ARM GAS  /tmp/ccNKo9M1.s 			page 10


 486:Drivers/STM32L4xx_HAL_Driver/Src/stm32l4xx_hal_dac.c **** /**
 487:Drivers/STM32L4xx_HAL_Driver/Src/stm32l4xx_hal_dac.c ****   * @brief  Initialize the DAC MSP.
 488:Drivers/STM32L4xx_HAL_Driver/Src/stm32l4xx_hal_dac.c ****   * @param  hdac pointer to a DAC_HandleTypeDef structure that contains
 489:Drivers/STM32L4xx_HAL_Driver/Src/stm32l4xx_hal_dac.c ****   *         the configuration information for the specified DAC.
 490:Drivers/STM32L4xx_HAL_Driver/Src/stm32l4xx_hal_dac.c ****   * @retval None
 491:Drivers/STM32L4xx_HAL_Driver/Src/stm32l4xx_hal_dac.c ****   */
 492:Drivers/STM32L4xx_HAL_Driver/Src/stm32l4xx_hal_dac.c **** __weak void HAL_DAC_MspInit(DAC_HandleTypeDef *hdac)
 493:Drivers/STM32L4xx_HAL_Driver/Src/stm32l4xx_hal_dac.c **** {
  30              		.loc 1 493 0
  31              		.cfi_startproc
  32              		@ args = 0, pretend = 0, frame = 0
  33              		@ frame_needed = 0, uses_anonymous_args = 0
  34              		@ link register save eliminated.
  35              	.LVL0:
  36 0000 7047     		bx	lr
  37              		.cfi_endproc
  38              	.LFE290:
  40 0002 00BF     		.section	.text.HAL_DAC_Init,"ax",%progbits
  41              		.align	2
  42              		.global	HAL_DAC_Init
  43              		.thumb
  44              		.thumb_func
  46              	HAL_DAC_Init:
  47              	.LFB288:
 379:Drivers/STM32L4xx_HAL_Driver/Src/stm32l4xx_hal_dac.c ****   /* Check DAC handle */
  48              		.loc 1 379 0
  49              		.cfi_startproc
  50              		@ args = 0, pretend = 0, frame = 0
  51              		@ frame_needed = 0, uses_anonymous_args = 0
  52              	.LVL1:
 381:Drivers/STM32L4xx_HAL_Driver/Src/stm32l4xx_hal_dac.c ****   {
  53              		.loc 1 381 0
  54 0000 80B1     		cbz	r0, .L5
 379:Drivers/STM32L4xx_HAL_Driver/Src/stm32l4xx_hal_dac.c ****   /* Check DAC handle */
  55              		.loc 1 379 0
  56 0002 10B5     		push	{r4, lr}
  57              	.LCFI0:
  58              		.cfi_def_cfa_offset 8
  59              		.cfi_offset 4, -8
  60              		.cfi_offset 14, -4
  61 0004 0446     		mov	r4, r0
 388:Drivers/STM32L4xx_HAL_Driver/Src/stm32l4xx_hal_dac.c ****   {
  62              		.loc 1 388 0
  63 0006 0379     		ldrb	r3, [r0, #4]	@ zero_extendqisi2
  64 0008 13F0FF0F 		tst	r3, #255
  65 000c 03D1     		bne	.L4
 417:Drivers/STM32L4xx_HAL_Driver/Src/stm32l4xx_hal_dac.c **** 
  66              		.loc 1 417 0
  67 000e 0023     		movs	r3, #0
  68 0010 4371     		strb	r3, [r0, #5]
 424:Drivers/STM32L4xx_HAL_Driver/Src/stm32l4xx_hal_dac.c **** #endif /* USE_HAL_DAC_REGISTER_CALLBACKS */
  69              		.loc 1 424 0
  70 0012 FFF7FEFF 		bl	HAL_DAC_MspInit
  71              	.LVL2:
  72              	.L4:
 429:Drivers/STM32L4xx_HAL_Driver/Src/stm32l4xx_hal_dac.c **** 
  73              		.loc 1 429 0
ARM GAS  /tmp/ccNKo9M1.s 			page 11


  74 0016 0223     		movs	r3, #2
  75 0018 2371     		strb	r3, [r4, #4]
 432:Drivers/STM32L4xx_HAL_Driver/Src/stm32l4xx_hal_dac.c **** 
  76              		.loc 1 432 0
  77 001a 0020     		movs	r0, #0
  78 001c 2061     		str	r0, [r4, #16]
 435:Drivers/STM32L4xx_HAL_Driver/Src/stm32l4xx_hal_dac.c **** 
  79              		.loc 1 435 0
  80 001e 0123     		movs	r3, #1
  81 0020 2371     		strb	r3, [r4, #4]
 438:Drivers/STM32L4xx_HAL_Driver/Src/stm32l4xx_hal_dac.c **** }
  82              		.loc 1 438 0
  83 0022 10BD     		pop	{r4, pc}
  84              	.LVL3:
  85              	.L5:
  86              	.LCFI1:
  87              		.cfi_def_cfa_offset 0
  88              		.cfi_restore 4
  89              		.cfi_restore 14
 383:Drivers/STM32L4xx_HAL_Driver/Src/stm32l4xx_hal_dac.c ****   }
  90              		.loc 1 383 0
  91 0024 0120     		movs	r0, #1
  92              	.LVL4:
  93 0026 7047     		bx	lr
  94              		.cfi_endproc
  95              	.LFE288:
  97              		.section	.text.HAL_DAC_MspDeInit,"ax",%progbits
  98              		.align	2
  99              		.weak	HAL_DAC_MspDeInit
 100              		.thumb
 101              		.thumb_func
 103              	HAL_DAC_MspDeInit:
 104              	.LFB291:
 494:Drivers/STM32L4xx_HAL_Driver/Src/stm32l4xx_hal_dac.c ****   /* Prevent unused argument(s) compilation warning */
 495:Drivers/STM32L4xx_HAL_Driver/Src/stm32l4xx_hal_dac.c ****   UNUSED(hdac);
 496:Drivers/STM32L4xx_HAL_Driver/Src/stm32l4xx_hal_dac.c **** 
 497:Drivers/STM32L4xx_HAL_Driver/Src/stm32l4xx_hal_dac.c ****   /* NOTE : This function should not be modified, when the callback is needed,
 498:Drivers/STM32L4xx_HAL_Driver/Src/stm32l4xx_hal_dac.c ****             the HAL_DAC_MspInit could be implemented in the user file
 499:Drivers/STM32L4xx_HAL_Driver/Src/stm32l4xx_hal_dac.c ****    */
 500:Drivers/STM32L4xx_HAL_Driver/Src/stm32l4xx_hal_dac.c **** }
 501:Drivers/STM32L4xx_HAL_Driver/Src/stm32l4xx_hal_dac.c **** 
 502:Drivers/STM32L4xx_HAL_Driver/Src/stm32l4xx_hal_dac.c **** /**
 503:Drivers/STM32L4xx_HAL_Driver/Src/stm32l4xx_hal_dac.c ****   * @brief  DeInitialize the DAC MSP.
 504:Drivers/STM32L4xx_HAL_Driver/Src/stm32l4xx_hal_dac.c ****   * @param  hdac pointer to a DAC_HandleTypeDef structure that contains
 505:Drivers/STM32L4xx_HAL_Driver/Src/stm32l4xx_hal_dac.c ****   *         the configuration information for the specified DAC.
 506:Drivers/STM32L4xx_HAL_Driver/Src/stm32l4xx_hal_dac.c ****   * @retval None
 507:Drivers/STM32L4xx_HAL_Driver/Src/stm32l4xx_hal_dac.c ****   */
 508:Drivers/STM32L4xx_HAL_Driver/Src/stm32l4xx_hal_dac.c **** __weak void HAL_DAC_MspDeInit(DAC_HandleTypeDef *hdac)
 509:Drivers/STM32L4xx_HAL_Driver/Src/stm32l4xx_hal_dac.c **** {
 105              		.loc 1 509 0
 106              		.cfi_startproc
 107              		@ args = 0, pretend = 0, frame = 0
 108              		@ frame_needed = 0, uses_anonymous_args = 0
 109              		@ link register save eliminated.
 110              	.LVL5:
 111 0000 7047     		bx	lr
 112              		.cfi_endproc
ARM GAS  /tmp/ccNKo9M1.s 			page 12


 113              	.LFE291:
 115 0002 00BF     		.section	.text.HAL_DAC_DeInit,"ax",%progbits
 116              		.align	2
 117              		.global	HAL_DAC_DeInit
 118              		.thumb
 119              		.thumb_func
 121              	HAL_DAC_DeInit:
 122              	.LFB289:
 448:Drivers/STM32L4xx_HAL_Driver/Src/stm32l4xx_hal_dac.c ****   /* Check DAC handle */
 123              		.loc 1 448 0
 124              		.cfi_startproc
 125              		@ args = 0, pretend = 0, frame = 0
 126              		@ frame_needed = 0, uses_anonymous_args = 0
 127              	.LVL6:
 450:Drivers/STM32L4xx_HAL_Driver/Src/stm32l4xx_hal_dac.c ****   {
 128              		.loc 1 450 0
 129 0000 50B1     		cbz	r0, .L11
 448:Drivers/STM32L4xx_HAL_Driver/Src/stm32l4xx_hal_dac.c ****   /* Check DAC handle */
 130              		.loc 1 448 0
 131 0002 10B5     		push	{r4, lr}
 132              	.LCFI2:
 133              		.cfi_def_cfa_offset 8
 134              		.cfi_offset 4, -8
 135              		.cfi_offset 14, -4
 136 0004 0446     		mov	r4, r0
 459:Drivers/STM32L4xx_HAL_Driver/Src/stm32l4xx_hal_dac.c **** 
 137              		.loc 1 459 0
 138 0006 0223     		movs	r3, #2
 139 0008 0371     		strb	r3, [r0, #4]
 470:Drivers/STM32L4xx_HAL_Driver/Src/stm32l4xx_hal_dac.c **** #endif /* USE_HAL_DAC_REGISTER_CALLBACKS */
 140              		.loc 1 470 0
 141 000a FFF7FEFF 		bl	HAL_DAC_MspDeInit
 142              	.LVL7:
 474:Drivers/STM32L4xx_HAL_Driver/Src/stm32l4xx_hal_dac.c **** 
 143              		.loc 1 474 0
 144 000e 0020     		movs	r0, #0
 145 0010 2061     		str	r0, [r4, #16]
 477:Drivers/STM32L4xx_HAL_Driver/Src/stm32l4xx_hal_dac.c **** 
 146              		.loc 1 477 0
 147 0012 2071     		strb	r0, [r4, #4]
 480:Drivers/STM32L4xx_HAL_Driver/Src/stm32l4xx_hal_dac.c **** 
 148              		.loc 1 480 0
 149 0014 6071     		strb	r0, [r4, #5]
 483:Drivers/STM32L4xx_HAL_Driver/Src/stm32l4xx_hal_dac.c **** }
 150              		.loc 1 483 0
 151 0016 10BD     		pop	{r4, pc}
 152              	.LVL8:
 153              	.L11:
 154              	.LCFI3:
 155              		.cfi_def_cfa_offset 0
 156              		.cfi_restore 4
 157              		.cfi_restore 14
 452:Drivers/STM32L4xx_HAL_Driver/Src/stm32l4xx_hal_dac.c ****   }
 158              		.loc 1 452 0
 159 0018 0120     		movs	r0, #1
 160              	.LVL9:
 161 001a 7047     		bx	lr
ARM GAS  /tmp/ccNKo9M1.s 			page 13


 162              		.cfi_endproc
 163              	.LFE289:
 165              		.section	.text.HAL_DAC_Start,"ax",%progbits
 166              		.align	2
 167              		.global	HAL_DAC_Start
 168              		.thumb
 169              		.thumb_func
 171              	HAL_DAC_Start:
 172              	.LFB292:
 510:Drivers/STM32L4xx_HAL_Driver/Src/stm32l4xx_hal_dac.c ****   /* Prevent unused argument(s) compilation warning */
 511:Drivers/STM32L4xx_HAL_Driver/Src/stm32l4xx_hal_dac.c ****   UNUSED(hdac);
 512:Drivers/STM32L4xx_HAL_Driver/Src/stm32l4xx_hal_dac.c **** 
 513:Drivers/STM32L4xx_HAL_Driver/Src/stm32l4xx_hal_dac.c ****   /* NOTE : This function should not be modified, when the callback is needed,
 514:Drivers/STM32L4xx_HAL_Driver/Src/stm32l4xx_hal_dac.c ****             the HAL_DAC_MspDeInit could be implemented in the user file
 515:Drivers/STM32L4xx_HAL_Driver/Src/stm32l4xx_hal_dac.c ****    */
 516:Drivers/STM32L4xx_HAL_Driver/Src/stm32l4xx_hal_dac.c **** }
 517:Drivers/STM32L4xx_HAL_Driver/Src/stm32l4xx_hal_dac.c **** 
 518:Drivers/STM32L4xx_HAL_Driver/Src/stm32l4xx_hal_dac.c **** /**
 519:Drivers/STM32L4xx_HAL_Driver/Src/stm32l4xx_hal_dac.c ****   * @}
 520:Drivers/STM32L4xx_HAL_Driver/Src/stm32l4xx_hal_dac.c ****   */
 521:Drivers/STM32L4xx_HAL_Driver/Src/stm32l4xx_hal_dac.c **** 
 522:Drivers/STM32L4xx_HAL_Driver/Src/stm32l4xx_hal_dac.c **** /** @defgroup DAC_Exported_Functions_Group2 IO operation functions
 523:Drivers/STM32L4xx_HAL_Driver/Src/stm32l4xx_hal_dac.c ****  *  @brief    IO operation functions
 524:Drivers/STM32L4xx_HAL_Driver/Src/stm32l4xx_hal_dac.c ****  *
 525:Drivers/STM32L4xx_HAL_Driver/Src/stm32l4xx_hal_dac.c **** @verbatim
 526:Drivers/STM32L4xx_HAL_Driver/Src/stm32l4xx_hal_dac.c ****   ==============================================================================
 527:Drivers/STM32L4xx_HAL_Driver/Src/stm32l4xx_hal_dac.c ****              ##### IO operation functions #####
 528:Drivers/STM32L4xx_HAL_Driver/Src/stm32l4xx_hal_dac.c ****   ==============================================================================
 529:Drivers/STM32L4xx_HAL_Driver/Src/stm32l4xx_hal_dac.c ****     [..]  This section provides functions allowing to:
 530:Drivers/STM32L4xx_HAL_Driver/Src/stm32l4xx_hal_dac.c ****       (+) Start conversion.
 531:Drivers/STM32L4xx_HAL_Driver/Src/stm32l4xx_hal_dac.c ****       (+) Stop conversion.
 532:Drivers/STM32L4xx_HAL_Driver/Src/stm32l4xx_hal_dac.c ****       (+) Start conversion and enable DMA transfer.
 533:Drivers/STM32L4xx_HAL_Driver/Src/stm32l4xx_hal_dac.c ****       (+) Stop conversion and disable DMA transfer.
 534:Drivers/STM32L4xx_HAL_Driver/Src/stm32l4xx_hal_dac.c ****       (+) Get result of conversion.
 535:Drivers/STM32L4xx_HAL_Driver/Src/stm32l4xx_hal_dac.c **** 
 536:Drivers/STM32L4xx_HAL_Driver/Src/stm32l4xx_hal_dac.c **** @endverbatim
 537:Drivers/STM32L4xx_HAL_Driver/Src/stm32l4xx_hal_dac.c ****   * @{
 538:Drivers/STM32L4xx_HAL_Driver/Src/stm32l4xx_hal_dac.c ****   */
 539:Drivers/STM32L4xx_HAL_Driver/Src/stm32l4xx_hal_dac.c **** 
 540:Drivers/STM32L4xx_HAL_Driver/Src/stm32l4xx_hal_dac.c **** /**
 541:Drivers/STM32L4xx_HAL_Driver/Src/stm32l4xx_hal_dac.c ****   * @brief  Enables DAC and starts conversion of channel.
 542:Drivers/STM32L4xx_HAL_Driver/Src/stm32l4xx_hal_dac.c ****   * @param  hdac pointer to a DAC_HandleTypeDef structure that contains
 543:Drivers/STM32L4xx_HAL_Driver/Src/stm32l4xx_hal_dac.c ****   *         the configuration information for the specified DAC.
 544:Drivers/STM32L4xx_HAL_Driver/Src/stm32l4xx_hal_dac.c ****   * @param  Channel The selected DAC channel.
 545:Drivers/STM32L4xx_HAL_Driver/Src/stm32l4xx_hal_dac.c ****   *          This parameter can be one of the following values:
 546:Drivers/STM32L4xx_HAL_Driver/Src/stm32l4xx_hal_dac.c ****   *            @arg DAC_CHANNEL_1: DAC Channel1 selected
 547:Drivers/STM32L4xx_HAL_Driver/Src/stm32l4xx_hal_dac.c ****   *            @arg DAC_CHANNEL_2: DAC Channel2 selected (when supported)
 548:Drivers/STM32L4xx_HAL_Driver/Src/stm32l4xx_hal_dac.c ****   * @retval HAL status
 549:Drivers/STM32L4xx_HAL_Driver/Src/stm32l4xx_hal_dac.c ****   */
 550:Drivers/STM32L4xx_HAL_Driver/Src/stm32l4xx_hal_dac.c **** HAL_StatusTypeDef HAL_DAC_Start(DAC_HandleTypeDef *hdac, uint32_t Channel)
 551:Drivers/STM32L4xx_HAL_Driver/Src/stm32l4xx_hal_dac.c **** {
 173              		.loc 1 551 0
 174              		.cfi_startproc
 175              		@ args = 0, pretend = 0, frame = 0
 176              		@ frame_needed = 0, uses_anonymous_args = 0
 177              		@ link register save eliminated.
 178              	.LVL10:
ARM GAS  /tmp/ccNKo9M1.s 			page 14


 552:Drivers/STM32L4xx_HAL_Driver/Src/stm32l4xx_hal_dac.c ****   /* Check the parameters */
 553:Drivers/STM32L4xx_HAL_Driver/Src/stm32l4xx_hal_dac.c ****   assert_param(IS_DAC_CHANNEL(Channel));
 554:Drivers/STM32L4xx_HAL_Driver/Src/stm32l4xx_hal_dac.c **** 
 555:Drivers/STM32L4xx_HAL_Driver/Src/stm32l4xx_hal_dac.c ****   /* Process locked */
 556:Drivers/STM32L4xx_HAL_Driver/Src/stm32l4xx_hal_dac.c ****   __HAL_LOCK(hdac);
 179              		.loc 1 556 0
 180 0000 4379     		ldrb	r3, [r0, #5]	@ zero_extendqisi2
 181 0002 012B     		cmp	r3, #1
 182 0004 28D0     		beq	.L18
 551:Drivers/STM32L4xx_HAL_Driver/Src/stm32l4xx_hal_dac.c ****   /* Check the parameters */
 183              		.loc 1 551 0 discriminator 2
 184 0006 30B4     		push	{r4, r5}
 185              	.LCFI4:
 186              		.cfi_def_cfa_offset 8
 187              		.cfi_offset 4, -8
 188              		.cfi_offset 5, -4
 189              		.loc 1 556 0 discriminator 2
 190 0008 0123     		movs	r3, #1
 191 000a 4371     		strb	r3, [r0, #5]
 557:Drivers/STM32L4xx_HAL_Driver/Src/stm32l4xx_hal_dac.c **** 
 558:Drivers/STM32L4xx_HAL_Driver/Src/stm32l4xx_hal_dac.c ****   /* Change DAC state */
 559:Drivers/STM32L4xx_HAL_Driver/Src/stm32l4xx_hal_dac.c ****   hdac->State = HAL_DAC_STATE_BUSY;
 192              		.loc 1 559 0 discriminator 2
 193 000c 0222     		movs	r2, #2
 194 000e 0271     		strb	r2, [r0, #4]
 560:Drivers/STM32L4xx_HAL_Driver/Src/stm32l4xx_hal_dac.c **** 
 561:Drivers/STM32L4xx_HAL_Driver/Src/stm32l4xx_hal_dac.c ****   /* Enable the Peripheral */
 562:Drivers/STM32L4xx_HAL_Driver/Src/stm32l4xx_hal_dac.c ****   __HAL_DAC_ENABLE(hdac, Channel);
 195              		.loc 1 562 0 discriminator 2
 196 0010 0268     		ldr	r2, [r0]
 197 0012 1468     		ldr	r4, [r2]
 198 0014 01F01005 		and	r5, r1, #16
 199 0018 AB40     		lsls	r3, r3, r5
 200 001a 2343     		orrs	r3, r3, r4
 201 001c 1360     		str	r3, [r2]
 563:Drivers/STM32L4xx_HAL_Driver/Src/stm32l4xx_hal_dac.c **** 
 564:Drivers/STM32L4xx_HAL_Driver/Src/stm32l4xx_hal_dac.c **** #if defined (STM32L4P5xx) || defined (STM32L4Q5xx) || defined (STM32L4R5xx) || defined (STM32L4R7xx
 565:Drivers/STM32L4xx_HAL_Driver/Src/stm32l4xx_hal_dac.c ****   if (Channel == DAC_CHANNEL_1)
 566:Drivers/STM32L4xx_HAL_Driver/Src/stm32l4xx_hal_dac.c ****   {
 567:Drivers/STM32L4xx_HAL_Driver/Src/stm32l4xx_hal_dac.c ****     /* Check if software trigger enabled */
 568:Drivers/STM32L4xx_HAL_Driver/Src/stm32l4xx_hal_dac.c ****     if ((hdac->Instance->CR & (DAC_CR_TEN1 | DAC_CR_TSEL1)) == DAC_TRIGGER_SOFTWARE)
 569:Drivers/STM32L4xx_HAL_Driver/Src/stm32l4xx_hal_dac.c ****     {
 570:Drivers/STM32L4xx_HAL_Driver/Src/stm32l4xx_hal_dac.c ****       /* Enable the selected DAC software conversion */
 571:Drivers/STM32L4xx_HAL_Driver/Src/stm32l4xx_hal_dac.c ****       SET_BIT(hdac->Instance->SWTRIGR, DAC_SWTRIGR_SWTRIG1);
 572:Drivers/STM32L4xx_HAL_Driver/Src/stm32l4xx_hal_dac.c ****     }
 573:Drivers/STM32L4xx_HAL_Driver/Src/stm32l4xx_hal_dac.c ****   }
 574:Drivers/STM32L4xx_HAL_Driver/Src/stm32l4xx_hal_dac.c ****   else
 575:Drivers/STM32L4xx_HAL_Driver/Src/stm32l4xx_hal_dac.c ****   {
 576:Drivers/STM32L4xx_HAL_Driver/Src/stm32l4xx_hal_dac.c ****     /* Check if software trigger enabled */
 577:Drivers/STM32L4xx_HAL_Driver/Src/stm32l4xx_hal_dac.c ****     if ((hdac->Instance->CR & (DAC_CR_TEN2 | DAC_CR_TSEL2)) == (DAC_TRIGGER_SOFTWARE << (Channel & 
 578:Drivers/STM32L4xx_HAL_Driver/Src/stm32l4xx_hal_dac.c ****     {
 579:Drivers/STM32L4xx_HAL_Driver/Src/stm32l4xx_hal_dac.c ****       /* Enable the selected DAC software conversion*/
 580:Drivers/STM32L4xx_HAL_Driver/Src/stm32l4xx_hal_dac.c ****       SET_BIT(hdac->Instance->SWTRIGR, DAC_SWTRIGR_SWTRIG2);
 581:Drivers/STM32L4xx_HAL_Driver/Src/stm32l4xx_hal_dac.c ****     }
 582:Drivers/STM32L4xx_HAL_Driver/Src/stm32l4xx_hal_dac.c ****   }
 583:Drivers/STM32L4xx_HAL_Driver/Src/stm32l4xx_hal_dac.c **** 
 584:Drivers/STM32L4xx_HAL_Driver/Src/stm32l4xx_hal_dac.c **** #endif /* STM32L4P5xx STM32L4Q5xx STM32L4R5xx STM32L4R7xx STM32L4R9xx STM32L4S5xx STM32L4S7xx STM32
ARM GAS  /tmp/ccNKo9M1.s 			page 15


 585:Drivers/STM32L4xx_HAL_Driver/Src/stm32l4xx_hal_dac.c **** 
 586:Drivers/STM32L4xx_HAL_Driver/Src/stm32l4xx_hal_dac.c **** #if defined (STM32L431xx) || defined (STM32L432xx) || defined (STM32L433xx) || defined (STM32L442xx
 587:Drivers/STM32L4xx_HAL_Driver/Src/stm32l4xx_hal_dac.c ****     defined (STM32L471xx) || defined (STM32L475xx) || defined (STM32L476xx) || defined (STM32L485xx
 588:Drivers/STM32L4xx_HAL_Driver/Src/stm32l4xx_hal_dac.c ****   if(Channel == DAC_CHANNEL_1)
 202              		.loc 1 588 0 discriminator 2
 203 001e 51B9     		cbnz	r1, .L16
 589:Drivers/STM32L4xx_HAL_Driver/Src/stm32l4xx_hal_dac.c ****   {
 590:Drivers/STM32L4xx_HAL_Driver/Src/stm32l4xx_hal_dac.c ****     /* Check if software trigger enabled */
 591:Drivers/STM32L4xx_HAL_Driver/Src/stm32l4xx_hal_dac.c ****     if ((hdac->Instance->CR & (DAC_CR_TEN1 | DAC_CR_TSEL1)) == DAC_CR_TEN1)
 204              		.loc 1 591 0
 205 0020 0268     		ldr	r2, [r0]
 206 0022 1368     		ldr	r3, [r2]
 207 0024 03F03C03 		and	r3, r3, #60
 208 0028 042B     		cmp	r3, #4
 209 002a 0FD1     		bne	.L17
 592:Drivers/STM32L4xx_HAL_Driver/Src/stm32l4xx_hal_dac.c ****     {
 593:Drivers/STM32L4xx_HAL_Driver/Src/stm32l4xx_hal_dac.c ****       /* Enable the selected DAC software conversion */
 594:Drivers/STM32L4xx_HAL_Driver/Src/stm32l4xx_hal_dac.c ****       SET_BIT(hdac->Instance->SWTRIGR, DAC_SWTRIGR_SWTRIG1);
 210              		.loc 1 594 0
 211 002c 5368     		ldr	r3, [r2, #4]
 212 002e 43F00103 		orr	r3, r3, #1
 213 0032 5360     		str	r3, [r2, #4]
 214 0034 0AE0     		b	.L17
 215              	.L16:
 595:Drivers/STM32L4xx_HAL_Driver/Src/stm32l4xx_hal_dac.c ****     }
 596:Drivers/STM32L4xx_HAL_Driver/Src/stm32l4xx_hal_dac.c ****   }
 597:Drivers/STM32L4xx_HAL_Driver/Src/stm32l4xx_hal_dac.c ****   else
 598:Drivers/STM32L4xx_HAL_Driver/Src/stm32l4xx_hal_dac.c ****   {
 599:Drivers/STM32L4xx_HAL_Driver/Src/stm32l4xx_hal_dac.c ****     /* Check if software trigger enabled */
 600:Drivers/STM32L4xx_HAL_Driver/Src/stm32l4xx_hal_dac.c ****     if ((hdac->Instance->CR & (DAC_CR_TEN2 | DAC_CR_TSEL2)) == DAC_CR_TEN2)
 216              		.loc 1 600 0
 217 0036 0268     		ldr	r2, [r0]
 218 0038 1368     		ldr	r3, [r2]
 219 003a 03F47013 		and	r3, r3, #3932160
 220 003e B3F5802F 		cmp	r3, #262144
 221 0042 03D1     		bne	.L17
 601:Drivers/STM32L4xx_HAL_Driver/Src/stm32l4xx_hal_dac.c ****     {
 602:Drivers/STM32L4xx_HAL_Driver/Src/stm32l4xx_hal_dac.c ****       /* Enable the selected DAC software conversion*/
 603:Drivers/STM32L4xx_HAL_Driver/Src/stm32l4xx_hal_dac.c ****       SET_BIT(hdac->Instance->SWTRIGR, DAC_SWTRIGR_SWTRIG2);
 222              		.loc 1 603 0
 223 0044 5368     		ldr	r3, [r2, #4]
 224 0046 43F00203 		orr	r3, r3, #2
 225 004a 5360     		str	r3, [r2, #4]
 226              	.L17:
 604:Drivers/STM32L4xx_HAL_Driver/Src/stm32l4xx_hal_dac.c ****     }
 605:Drivers/STM32L4xx_HAL_Driver/Src/stm32l4xx_hal_dac.c ****   }
 606:Drivers/STM32L4xx_HAL_Driver/Src/stm32l4xx_hal_dac.c **** #endif  /* STM32L431xx STM32L432xx STM32L433xx STM32L442xx STM32L443xx                         */
 607:Drivers/STM32L4xx_HAL_Driver/Src/stm32l4xx_hal_dac.c ****         /* STM32L471xx STM32L475xx STM32L476xx STM32L485xx STM32L486xx STM32L496xx STM32L4A6xx */
 608:Drivers/STM32L4xx_HAL_Driver/Src/stm32l4xx_hal_dac.c **** 
 609:Drivers/STM32L4xx_HAL_Driver/Src/stm32l4xx_hal_dac.c **** 
 610:Drivers/STM32L4xx_HAL_Driver/Src/stm32l4xx_hal_dac.c **** #if defined (STM32L451xx) || defined (STM32L452xx) || defined (STM32L462xx)
 611:Drivers/STM32L4xx_HAL_Driver/Src/stm32l4xx_hal_dac.c ****   /* Check if software trigger enabled */
 612:Drivers/STM32L4xx_HAL_Driver/Src/stm32l4xx_hal_dac.c ****   if((hdac->Instance->CR & (DAC_CR_TEN1 | DAC_CR_TSEL1)) == (DAC_CR_TEN1 | DAC_CR_TSEL1))
 613:Drivers/STM32L4xx_HAL_Driver/Src/stm32l4xx_hal_dac.c ****   {
 614:Drivers/STM32L4xx_HAL_Driver/Src/stm32l4xx_hal_dac.c ****     /* Enable the selected DAC software conversion */
 615:Drivers/STM32L4xx_HAL_Driver/Src/stm32l4xx_hal_dac.c ****     SET_BIT(hdac->Instance->SWTRIGR, DAC_SWTRIGR_SWTRIG1);
 616:Drivers/STM32L4xx_HAL_Driver/Src/stm32l4xx_hal_dac.c ****   }
ARM GAS  /tmp/ccNKo9M1.s 			page 16


 617:Drivers/STM32L4xx_HAL_Driver/Src/stm32l4xx_hal_dac.c **** #endif /* STM32L451xx STM32L452xx STM32L462xx */
 618:Drivers/STM32L4xx_HAL_Driver/Src/stm32l4xx_hal_dac.c ****   /* Change DAC state */
 619:Drivers/STM32L4xx_HAL_Driver/Src/stm32l4xx_hal_dac.c ****   hdac->State = HAL_DAC_STATE_READY;
 227              		.loc 1 619 0
 228 004c 0123     		movs	r3, #1
 229 004e 0371     		strb	r3, [r0, #4]
 620:Drivers/STM32L4xx_HAL_Driver/Src/stm32l4xx_hal_dac.c **** 
 621:Drivers/STM32L4xx_HAL_Driver/Src/stm32l4xx_hal_dac.c ****   /* Process unlocked */
 622:Drivers/STM32L4xx_HAL_Driver/Src/stm32l4xx_hal_dac.c ****   __HAL_UNLOCK(hdac);
 230              		.loc 1 622 0
 231 0050 0023     		movs	r3, #0
 232 0052 4371     		strb	r3, [r0, #5]
 623:Drivers/STM32L4xx_HAL_Driver/Src/stm32l4xx_hal_dac.c **** 
 624:Drivers/STM32L4xx_HAL_Driver/Src/stm32l4xx_hal_dac.c ****   /* Return function status */
 625:Drivers/STM32L4xx_HAL_Driver/Src/stm32l4xx_hal_dac.c ****   return HAL_OK;
 233              		.loc 1 625 0
 234 0054 1846     		mov	r0, r3
 235              	.LVL11:
 236 0056 01E0     		b	.L15
 237              	.LVL12:
 238              	.L18:
 239              	.LCFI5:
 240              		.cfi_def_cfa_offset 0
 241              		.cfi_restore 4
 242              		.cfi_restore 5
 556:Drivers/STM32L4xx_HAL_Driver/Src/stm32l4xx_hal_dac.c **** 
 243              		.loc 1 556 0
 244 0058 0220     		movs	r0, #2
 245              	.LVL13:
 246 005a 7047     		bx	lr
 247              	.L15:
 248              	.LCFI6:
 249              		.cfi_def_cfa_offset 8
 250              		.cfi_offset 4, -8
 251              		.cfi_offset 5, -4
 626:Drivers/STM32L4xx_HAL_Driver/Src/stm32l4xx_hal_dac.c **** }
 252              		.loc 1 626 0
 253 005c 30BC     		pop	{r4, r5}
 254              	.LCFI7:
 255              		.cfi_restore 5
 256              		.cfi_restore 4
 257              		.cfi_def_cfa_offset 0
 258 005e 7047     		bx	lr
 259              		.cfi_endproc
 260              	.LFE292:
 262              		.section	.text.HAL_DAC_Stop,"ax",%progbits
 263              		.align	2
 264              		.global	HAL_DAC_Stop
 265              		.thumb
 266              		.thumb_func
 268              	HAL_DAC_Stop:
 269              	.LFB293:
 627:Drivers/STM32L4xx_HAL_Driver/Src/stm32l4xx_hal_dac.c **** 
 628:Drivers/STM32L4xx_HAL_Driver/Src/stm32l4xx_hal_dac.c **** /**
 629:Drivers/STM32L4xx_HAL_Driver/Src/stm32l4xx_hal_dac.c ****   * @brief  Disables DAC and stop conversion of channel.
 630:Drivers/STM32L4xx_HAL_Driver/Src/stm32l4xx_hal_dac.c ****   * @param  hdac pointer to a DAC_HandleTypeDef structure that contains
 631:Drivers/STM32L4xx_HAL_Driver/Src/stm32l4xx_hal_dac.c ****   *         the configuration information for the specified DAC.
ARM GAS  /tmp/ccNKo9M1.s 			page 17


 632:Drivers/STM32L4xx_HAL_Driver/Src/stm32l4xx_hal_dac.c ****   * @param  Channel The selected DAC channel.
 633:Drivers/STM32L4xx_HAL_Driver/Src/stm32l4xx_hal_dac.c ****   *          This parameter can be one of the following values:
 634:Drivers/STM32L4xx_HAL_Driver/Src/stm32l4xx_hal_dac.c ****   *            @arg DAC_CHANNEL_1: DAC Channel1 selected
 635:Drivers/STM32L4xx_HAL_Driver/Src/stm32l4xx_hal_dac.c ****   *            @arg DAC_CHANNEL_2: DAC Channel2 selected
 636:Drivers/STM32L4xx_HAL_Driver/Src/stm32l4xx_hal_dac.c ****   * @retval HAL status
 637:Drivers/STM32L4xx_HAL_Driver/Src/stm32l4xx_hal_dac.c ****   */
 638:Drivers/STM32L4xx_HAL_Driver/Src/stm32l4xx_hal_dac.c **** HAL_StatusTypeDef HAL_DAC_Stop(DAC_HandleTypeDef *hdac, uint32_t Channel)
 639:Drivers/STM32L4xx_HAL_Driver/Src/stm32l4xx_hal_dac.c **** {
 270              		.loc 1 639 0
 271              		.cfi_startproc
 272              		@ args = 0, pretend = 0, frame = 0
 273              		@ frame_needed = 0, uses_anonymous_args = 0
 274              		@ link register save eliminated.
 275              	.LVL14:
 276 0000 10B4     		push	{r4}
 277              	.LCFI8:
 278              		.cfi_def_cfa_offset 4
 279              		.cfi_offset 4, -4
 640:Drivers/STM32L4xx_HAL_Driver/Src/stm32l4xx_hal_dac.c ****   /* Check the parameters */
 641:Drivers/STM32L4xx_HAL_Driver/Src/stm32l4xx_hal_dac.c ****   assert_param(IS_DAC_CHANNEL(Channel));
 642:Drivers/STM32L4xx_HAL_Driver/Src/stm32l4xx_hal_dac.c **** 
 643:Drivers/STM32L4xx_HAL_Driver/Src/stm32l4xx_hal_dac.c ****   /* Disable the Peripheral */
 644:Drivers/STM32L4xx_HAL_Driver/Src/stm32l4xx_hal_dac.c ****   __HAL_DAC_DISABLE(hdac, Channel);
 280              		.loc 1 644 0
 281 0002 0468     		ldr	r4, [r0]
 282 0004 2368     		ldr	r3, [r4]
 283 0006 01F01001 		and	r1, r1, #16
 284              	.LVL15:
 285 000a 0122     		movs	r2, #1
 286 000c 02FA01F1 		lsl	r1, r2, r1
 287 0010 23EA0103 		bic	r3, r3, r1
 288 0014 2360     		str	r3, [r4]
 645:Drivers/STM32L4xx_HAL_Driver/Src/stm32l4xx_hal_dac.c **** 
 646:Drivers/STM32L4xx_HAL_Driver/Src/stm32l4xx_hal_dac.c ****   /* Change DAC state */
 647:Drivers/STM32L4xx_HAL_Driver/Src/stm32l4xx_hal_dac.c ****   hdac->State = HAL_DAC_STATE_READY;
 289              		.loc 1 647 0
 290 0016 0271     		strb	r2, [r0, #4]
 648:Drivers/STM32L4xx_HAL_Driver/Src/stm32l4xx_hal_dac.c **** 
 649:Drivers/STM32L4xx_HAL_Driver/Src/stm32l4xx_hal_dac.c ****   /* Return function status */
 650:Drivers/STM32L4xx_HAL_Driver/Src/stm32l4xx_hal_dac.c ****   return HAL_OK;
 651:Drivers/STM32L4xx_HAL_Driver/Src/stm32l4xx_hal_dac.c **** }
 291              		.loc 1 651 0
 292 0018 0020     		movs	r0, #0
 293              	.LVL16:
 294 001a 5DF8044B 		ldr	r4, [sp], #4
 295              	.LCFI9:
 296              		.cfi_restore 4
 297              		.cfi_def_cfa_offset 0
 298 001e 7047     		bx	lr
 299              		.cfi_endproc
 300              	.LFE293:
 302              		.section	.text.HAL_DAC_Start_DMA,"ax",%progbits
 303              		.align	2
 304              		.global	HAL_DAC_Start_DMA
 305              		.thumb
 306              		.thumb_func
 308              	HAL_DAC_Start_DMA:
ARM GAS  /tmp/ccNKo9M1.s 			page 18


 309              	.LFB294:
 652:Drivers/STM32L4xx_HAL_Driver/Src/stm32l4xx_hal_dac.c **** 
 653:Drivers/STM32L4xx_HAL_Driver/Src/stm32l4xx_hal_dac.c **** #if defined (STM32L451xx) || defined (STM32L452xx) || defined (STM32L462xx)
 654:Drivers/STM32L4xx_HAL_Driver/Src/stm32l4xx_hal_dac.c **** /**
 655:Drivers/STM32L4xx_HAL_Driver/Src/stm32l4xx_hal_dac.c ****   * @brief  Enables DAC and starts conversion of channel.
 656:Drivers/STM32L4xx_HAL_Driver/Src/stm32l4xx_hal_dac.c ****   * @param  hdac pointer to a DAC_HandleTypeDef structure that contains
 657:Drivers/STM32L4xx_HAL_Driver/Src/stm32l4xx_hal_dac.c ****   *         the configuration information for the specified DAC.
 658:Drivers/STM32L4xx_HAL_Driver/Src/stm32l4xx_hal_dac.c ****   * @param  Channel The selected DAC channel.
 659:Drivers/STM32L4xx_HAL_Driver/Src/stm32l4xx_hal_dac.c ****   *          This parameter can be one of the following values:
 660:Drivers/STM32L4xx_HAL_Driver/Src/stm32l4xx_hal_dac.c ****   *            @arg DAC_CHANNEL_1: DAC Channel1 selected
 661:Drivers/STM32L4xx_HAL_Driver/Src/stm32l4xx_hal_dac.c ****   * @param  pData The destination peripheral Buffer address.
 662:Drivers/STM32L4xx_HAL_Driver/Src/stm32l4xx_hal_dac.c ****   * @param  Length The length of data to be transferred from memory to DAC peripheral
 663:Drivers/STM32L4xx_HAL_Driver/Src/stm32l4xx_hal_dac.c ****   * @param  Alignment Specifies the data alignment for DAC channel.
 664:Drivers/STM32L4xx_HAL_Driver/Src/stm32l4xx_hal_dac.c ****   *          This parameter can be one of the following values:
 665:Drivers/STM32L4xx_HAL_Driver/Src/stm32l4xx_hal_dac.c ****   *            @arg DAC_ALIGN_8B_R: 8bit right data alignment selected
 666:Drivers/STM32L4xx_HAL_Driver/Src/stm32l4xx_hal_dac.c ****   *            @arg DAC_ALIGN_12B_L: 12bit left data alignment selected
 667:Drivers/STM32L4xx_HAL_Driver/Src/stm32l4xx_hal_dac.c ****   *            @arg DAC_ALIGN_12B_R: 12bit right data alignment selected
 668:Drivers/STM32L4xx_HAL_Driver/Src/stm32l4xx_hal_dac.c ****   * @retval HAL status
 669:Drivers/STM32L4xx_HAL_Driver/Src/stm32l4xx_hal_dac.c ****   */
 670:Drivers/STM32L4xx_HAL_Driver/Src/stm32l4xx_hal_dac.c **** HAL_StatusTypeDef HAL_DAC_Start_DMA(DAC_HandleTypeDef *hdac, uint32_t Channel, uint32_t *pData, uin
 671:Drivers/STM32L4xx_HAL_Driver/Src/stm32l4xx_hal_dac.c ****                                     uint32_t Alignment)
 672:Drivers/STM32L4xx_HAL_Driver/Src/stm32l4xx_hal_dac.c **** {
 673:Drivers/STM32L4xx_HAL_Driver/Src/stm32l4xx_hal_dac.c ****   HAL_StatusTypeDef status;
 674:Drivers/STM32L4xx_HAL_Driver/Src/stm32l4xx_hal_dac.c ****   uint32_t tmpreg = 0U;
 675:Drivers/STM32L4xx_HAL_Driver/Src/stm32l4xx_hal_dac.c **** 
 676:Drivers/STM32L4xx_HAL_Driver/Src/stm32l4xx_hal_dac.c ****   /* Check the parameters */
 677:Drivers/STM32L4xx_HAL_Driver/Src/stm32l4xx_hal_dac.c ****   assert_param(IS_DAC_CHANNEL(Channel));
 678:Drivers/STM32L4xx_HAL_Driver/Src/stm32l4xx_hal_dac.c ****   assert_param(IS_DAC_ALIGN(Alignment));
 679:Drivers/STM32L4xx_HAL_Driver/Src/stm32l4xx_hal_dac.c **** 
 680:Drivers/STM32L4xx_HAL_Driver/Src/stm32l4xx_hal_dac.c ****   /* Process locked */
 681:Drivers/STM32L4xx_HAL_Driver/Src/stm32l4xx_hal_dac.c ****   __HAL_LOCK(hdac);
 682:Drivers/STM32L4xx_HAL_Driver/Src/stm32l4xx_hal_dac.c **** 
 683:Drivers/STM32L4xx_HAL_Driver/Src/stm32l4xx_hal_dac.c ****   /* Change DAC state */
 684:Drivers/STM32L4xx_HAL_Driver/Src/stm32l4xx_hal_dac.c ****   hdac->State = HAL_DAC_STATE_BUSY;
 685:Drivers/STM32L4xx_HAL_Driver/Src/stm32l4xx_hal_dac.c **** 
 686:Drivers/STM32L4xx_HAL_Driver/Src/stm32l4xx_hal_dac.c ****   /* Set the DMA transfer complete callback for channel1 */
 687:Drivers/STM32L4xx_HAL_Driver/Src/stm32l4xx_hal_dac.c ****   hdac->DMA_Handle1->XferCpltCallback = DAC_DMAConvCpltCh1;
 688:Drivers/STM32L4xx_HAL_Driver/Src/stm32l4xx_hal_dac.c **** 
 689:Drivers/STM32L4xx_HAL_Driver/Src/stm32l4xx_hal_dac.c ****   /* Set the DMA half transfer complete callback for channel1 */
 690:Drivers/STM32L4xx_HAL_Driver/Src/stm32l4xx_hal_dac.c ****   hdac->DMA_Handle1->XferHalfCpltCallback = DAC_DMAHalfConvCpltCh1;
 691:Drivers/STM32L4xx_HAL_Driver/Src/stm32l4xx_hal_dac.c **** 
 692:Drivers/STM32L4xx_HAL_Driver/Src/stm32l4xx_hal_dac.c ****   /* Set the DMA error callback for channel1 */
 693:Drivers/STM32L4xx_HAL_Driver/Src/stm32l4xx_hal_dac.c ****   hdac->DMA_Handle1->XferErrorCallback = DAC_DMAErrorCh1;
 694:Drivers/STM32L4xx_HAL_Driver/Src/stm32l4xx_hal_dac.c **** 
 695:Drivers/STM32L4xx_HAL_Driver/Src/stm32l4xx_hal_dac.c ****   /* Enable the selected DAC channel1 DMA request */
 696:Drivers/STM32L4xx_HAL_Driver/Src/stm32l4xx_hal_dac.c ****   SET_BIT(hdac->Instance->CR, DAC_CR_DMAEN1);
 697:Drivers/STM32L4xx_HAL_Driver/Src/stm32l4xx_hal_dac.c **** 
 698:Drivers/STM32L4xx_HAL_Driver/Src/stm32l4xx_hal_dac.c ****   /* Case of use of channel 1 */
 699:Drivers/STM32L4xx_HAL_Driver/Src/stm32l4xx_hal_dac.c ****   switch (Alignment)
 700:Drivers/STM32L4xx_HAL_Driver/Src/stm32l4xx_hal_dac.c ****   {
 701:Drivers/STM32L4xx_HAL_Driver/Src/stm32l4xx_hal_dac.c ****     case DAC_ALIGN_12B_R:
 702:Drivers/STM32L4xx_HAL_Driver/Src/stm32l4xx_hal_dac.c ****       /* Get DHR12R1 address */
 703:Drivers/STM32L4xx_HAL_Driver/Src/stm32l4xx_hal_dac.c ****       tmpreg = (uint32_t)&hdac->Instance->DHR12R1;
 704:Drivers/STM32L4xx_HAL_Driver/Src/stm32l4xx_hal_dac.c ****       break;
 705:Drivers/STM32L4xx_HAL_Driver/Src/stm32l4xx_hal_dac.c ****     case DAC_ALIGN_12B_L:
 706:Drivers/STM32L4xx_HAL_Driver/Src/stm32l4xx_hal_dac.c ****       /* Get DHR12L1 address */
 707:Drivers/STM32L4xx_HAL_Driver/Src/stm32l4xx_hal_dac.c ****       tmpreg = (uint32_t)&hdac->Instance->DHR12L1;
ARM GAS  /tmp/ccNKo9M1.s 			page 19


 708:Drivers/STM32L4xx_HAL_Driver/Src/stm32l4xx_hal_dac.c ****       break;
 709:Drivers/STM32L4xx_HAL_Driver/Src/stm32l4xx_hal_dac.c ****     case DAC_ALIGN_8B_R:
 710:Drivers/STM32L4xx_HAL_Driver/Src/stm32l4xx_hal_dac.c ****       /* Get DHR8R1 address */
 711:Drivers/STM32L4xx_HAL_Driver/Src/stm32l4xx_hal_dac.c ****       tmpreg = (uint32_t)&hdac->Instance->DHR8R1;
 712:Drivers/STM32L4xx_HAL_Driver/Src/stm32l4xx_hal_dac.c ****       break;
 713:Drivers/STM32L4xx_HAL_Driver/Src/stm32l4xx_hal_dac.c ****     default:
 714:Drivers/STM32L4xx_HAL_Driver/Src/stm32l4xx_hal_dac.c ****       break;
 715:Drivers/STM32L4xx_HAL_Driver/Src/stm32l4xx_hal_dac.c ****   }
 716:Drivers/STM32L4xx_HAL_Driver/Src/stm32l4xx_hal_dac.c **** 
 717:Drivers/STM32L4xx_HAL_Driver/Src/stm32l4xx_hal_dac.c ****   /* Enable the DMA channel */
 718:Drivers/STM32L4xx_HAL_Driver/Src/stm32l4xx_hal_dac.c ****   /* Enable the DAC DMA underrun interrupt */
 719:Drivers/STM32L4xx_HAL_Driver/Src/stm32l4xx_hal_dac.c ****   __HAL_DAC_ENABLE_IT(hdac, DAC_IT_DMAUDR1);
 720:Drivers/STM32L4xx_HAL_Driver/Src/stm32l4xx_hal_dac.c **** 
 721:Drivers/STM32L4xx_HAL_Driver/Src/stm32l4xx_hal_dac.c ****   /* Enable the DMA channel */
 722:Drivers/STM32L4xx_HAL_Driver/Src/stm32l4xx_hal_dac.c ****   status = HAL_DMA_Start_IT(hdac->DMA_Handle1, (uint32_t)pData, tmpreg, Length);
 723:Drivers/STM32L4xx_HAL_Driver/Src/stm32l4xx_hal_dac.c **** 
 724:Drivers/STM32L4xx_HAL_Driver/Src/stm32l4xx_hal_dac.c ****   /* Process Unlocked */
 725:Drivers/STM32L4xx_HAL_Driver/Src/stm32l4xx_hal_dac.c ****   __HAL_UNLOCK(hdac);
 726:Drivers/STM32L4xx_HAL_Driver/Src/stm32l4xx_hal_dac.c **** 
 727:Drivers/STM32L4xx_HAL_Driver/Src/stm32l4xx_hal_dac.c ****   if (status == HAL_OK)
 728:Drivers/STM32L4xx_HAL_Driver/Src/stm32l4xx_hal_dac.c ****   {
 729:Drivers/STM32L4xx_HAL_Driver/Src/stm32l4xx_hal_dac.c ****     /* Enable the Peripheral */
 730:Drivers/STM32L4xx_HAL_Driver/Src/stm32l4xx_hal_dac.c ****     __HAL_DAC_ENABLE(hdac, Channel);
 731:Drivers/STM32L4xx_HAL_Driver/Src/stm32l4xx_hal_dac.c ****   }
 732:Drivers/STM32L4xx_HAL_Driver/Src/stm32l4xx_hal_dac.c ****   else
 733:Drivers/STM32L4xx_HAL_Driver/Src/stm32l4xx_hal_dac.c ****   {
 734:Drivers/STM32L4xx_HAL_Driver/Src/stm32l4xx_hal_dac.c ****     hdac->ErrorCode |= HAL_DAC_ERROR_DMA;
 735:Drivers/STM32L4xx_HAL_Driver/Src/stm32l4xx_hal_dac.c ****   }
 736:Drivers/STM32L4xx_HAL_Driver/Src/stm32l4xx_hal_dac.c **** 
 737:Drivers/STM32L4xx_HAL_Driver/Src/stm32l4xx_hal_dac.c ****   /* Return function status */
 738:Drivers/STM32L4xx_HAL_Driver/Src/stm32l4xx_hal_dac.c ****   return status;
 739:Drivers/STM32L4xx_HAL_Driver/Src/stm32l4xx_hal_dac.c **** }
 740:Drivers/STM32L4xx_HAL_Driver/Src/stm32l4xx_hal_dac.c **** #endif /* STM32L451xx STM32L452xx STM32L462xx */
 741:Drivers/STM32L4xx_HAL_Driver/Src/stm32l4xx_hal_dac.c **** 
 742:Drivers/STM32L4xx_HAL_Driver/Src/stm32l4xx_hal_dac.c **** #if defined (STM32L431xx) || defined (STM32L432xx) || defined (STM32L433xx) || defined (STM32L442xx
 743:Drivers/STM32L4xx_HAL_Driver/Src/stm32l4xx_hal_dac.c ****     defined (STM32L471xx) || defined (STM32L475xx) || defined (STM32L476xx) || defined (STM32L485xx
 744:Drivers/STM32L4xx_HAL_Driver/Src/stm32l4xx_hal_dac.c ****     defined (STM32L4P5xx) || defined (STM32L4Q5xx) || \
 745:Drivers/STM32L4xx_HAL_Driver/Src/stm32l4xx_hal_dac.c ****     defined (STM32L4R5xx) || defined (STM32L4R7xx) || defined (STM32L4R9xx) || defined (STM32L4S5xx
 746:Drivers/STM32L4xx_HAL_Driver/Src/stm32l4xx_hal_dac.c **** 
 747:Drivers/STM32L4xx_HAL_Driver/Src/stm32l4xx_hal_dac.c **** /**
 748:Drivers/STM32L4xx_HAL_Driver/Src/stm32l4xx_hal_dac.c ****   * @brief  Enables DAC and starts conversion of channel.
 749:Drivers/STM32L4xx_HAL_Driver/Src/stm32l4xx_hal_dac.c ****   * @param  hdac pointer to a DAC_HandleTypeDef structure that contains
 750:Drivers/STM32L4xx_HAL_Driver/Src/stm32l4xx_hal_dac.c ****   *         the configuration information for the specified DAC.
 751:Drivers/STM32L4xx_HAL_Driver/Src/stm32l4xx_hal_dac.c ****   * @param  Channel The selected DAC channel.
 752:Drivers/STM32L4xx_HAL_Driver/Src/stm32l4xx_hal_dac.c ****   *          This parameter can be one of the following values:
 753:Drivers/STM32L4xx_HAL_Driver/Src/stm32l4xx_hal_dac.c ****   *            @arg DAC_CHANNEL_1: DAC Channel1 selected
 754:Drivers/STM32L4xx_HAL_Driver/Src/stm32l4xx_hal_dac.c ****   *            @arg DAC_CHANNEL_2: DAC Channel2 selected
 755:Drivers/STM32L4xx_HAL_Driver/Src/stm32l4xx_hal_dac.c ****   * @param  pData The destination peripheral Buffer address.
 756:Drivers/STM32L4xx_HAL_Driver/Src/stm32l4xx_hal_dac.c ****   * @param  Length The length of data to be transferred from memory to DAC peripheral
 757:Drivers/STM32L4xx_HAL_Driver/Src/stm32l4xx_hal_dac.c ****   * @param  Alignment Specifies the data alignment for DAC channel.
 758:Drivers/STM32L4xx_HAL_Driver/Src/stm32l4xx_hal_dac.c ****   *          This parameter can be one of the following values:
 759:Drivers/STM32L4xx_HAL_Driver/Src/stm32l4xx_hal_dac.c ****   *            @arg DAC_ALIGN_8B_R: 8bit right data alignment selected
 760:Drivers/STM32L4xx_HAL_Driver/Src/stm32l4xx_hal_dac.c ****   *            @arg DAC_ALIGN_12B_L: 12bit left data alignment selected
 761:Drivers/STM32L4xx_HAL_Driver/Src/stm32l4xx_hal_dac.c ****   *            @arg DAC_ALIGN_12B_R: 12bit right data alignment selected
 762:Drivers/STM32L4xx_HAL_Driver/Src/stm32l4xx_hal_dac.c ****   * @retval HAL status
 763:Drivers/STM32L4xx_HAL_Driver/Src/stm32l4xx_hal_dac.c ****   */
 764:Drivers/STM32L4xx_HAL_Driver/Src/stm32l4xx_hal_dac.c **** HAL_StatusTypeDef HAL_DAC_Start_DMA(DAC_HandleTypeDef *hdac, uint32_t Channel, uint32_t *pData, uin
ARM GAS  /tmp/ccNKo9M1.s 			page 20


 765:Drivers/STM32L4xx_HAL_Driver/Src/stm32l4xx_hal_dac.c ****                                     uint32_t Alignment)
 766:Drivers/STM32L4xx_HAL_Driver/Src/stm32l4xx_hal_dac.c **** {
 310              		.loc 1 766 0
 311              		.cfi_startproc
 312              		@ args = 4, pretend = 0, frame = 0
 313              		@ frame_needed = 0, uses_anonymous_args = 0
 314              	.LVL17:
 315 0000 F8B5     		push	{r3, r4, r5, r6, r7, lr}
 316              	.LCFI10:
 317              		.cfi_def_cfa_offset 24
 318              		.cfi_offset 3, -24
 319              		.cfi_offset 4, -20
 320              		.cfi_offset 5, -16
 321              		.cfi_offset 6, -12
 322              		.cfi_offset 7, -8
 323              		.cfi_offset 14, -4
 324 0002 069D     		ldr	r5, [sp, #24]
 325              	.LVL18:
 767:Drivers/STM32L4xx_HAL_Driver/Src/stm32l4xx_hal_dac.c ****   HAL_StatusTypeDef status;
 768:Drivers/STM32L4xx_HAL_Driver/Src/stm32l4xx_hal_dac.c ****   uint32_t tmpreg = 0U;
 769:Drivers/STM32L4xx_HAL_Driver/Src/stm32l4xx_hal_dac.c **** 
 770:Drivers/STM32L4xx_HAL_Driver/Src/stm32l4xx_hal_dac.c ****   /* Check the parameters */
 771:Drivers/STM32L4xx_HAL_Driver/Src/stm32l4xx_hal_dac.c ****   assert_param(IS_DAC_CHANNEL(Channel));
 772:Drivers/STM32L4xx_HAL_Driver/Src/stm32l4xx_hal_dac.c ****   assert_param(IS_DAC_ALIGN(Alignment));
 773:Drivers/STM32L4xx_HAL_Driver/Src/stm32l4xx_hal_dac.c **** 
 774:Drivers/STM32L4xx_HAL_Driver/Src/stm32l4xx_hal_dac.c ****   /* Process locked */
 775:Drivers/STM32L4xx_HAL_Driver/Src/stm32l4xx_hal_dac.c ****   __HAL_LOCK(hdac);
 326              		.loc 1 775 0
 327 0004 4479     		ldrb	r4, [r0, #5]	@ zero_extendqisi2
 328 0006 012C     		cmp	r4, #1
 329 0008 6AD0     		beq	.L36
 330              		.loc 1 775 0 is_stmt 0 discriminator 2
 331 000a 0124     		movs	r4, #1
 332 000c 4471     		strb	r4, [r0, #5]
 776:Drivers/STM32L4xx_HAL_Driver/Src/stm32l4xx_hal_dac.c **** 
 777:Drivers/STM32L4xx_HAL_Driver/Src/stm32l4xx_hal_dac.c ****   /* Change DAC state */
 778:Drivers/STM32L4xx_HAL_Driver/Src/stm32l4xx_hal_dac.c ****   hdac->State = HAL_DAC_STATE_BUSY;
 333              		.loc 1 778 0 is_stmt 1 discriminator 2
 334 000e 0224     		movs	r4, #2
 335 0010 0471     		strb	r4, [r0, #4]
 779:Drivers/STM32L4xx_HAL_Driver/Src/stm32l4xx_hal_dac.c **** 
 780:Drivers/STM32L4xx_HAL_Driver/Src/stm32l4xx_hal_dac.c ****   if (Channel == DAC_CHANNEL_1)
 336              		.loc 1 780 0 discriminator 2
 337 0012 D9B9     		cbnz	r1, .L25
 781:Drivers/STM32L4xx_HAL_Driver/Src/stm32l4xx_hal_dac.c ****   {
 782:Drivers/STM32L4xx_HAL_Driver/Src/stm32l4xx_hal_dac.c ****     /* Set the DMA transfer complete callback for channel1 */
 783:Drivers/STM32L4xx_HAL_Driver/Src/stm32l4xx_hal_dac.c ****     hdac->DMA_Handle1->XferCpltCallback = DAC_DMAConvCpltCh1;
 338              		.loc 1 783 0
 339 0014 8468     		ldr	r4, [r0, #8]
 340 0016 334E     		ldr	r6, .L42
 341 0018 E662     		str	r6, [r4, #44]
 784:Drivers/STM32L4xx_HAL_Driver/Src/stm32l4xx_hal_dac.c **** 
 785:Drivers/STM32L4xx_HAL_Driver/Src/stm32l4xx_hal_dac.c ****     /* Set the DMA half transfer complete callback for channel1 */
 786:Drivers/STM32L4xx_HAL_Driver/Src/stm32l4xx_hal_dac.c ****     hdac->DMA_Handle1->XferHalfCpltCallback = DAC_DMAHalfConvCpltCh1;
 342              		.loc 1 786 0
 343 001a 8468     		ldr	r4, [r0, #8]
 344 001c 324E     		ldr	r6, .L42+4
ARM GAS  /tmp/ccNKo9M1.s 			page 21


 345 001e 2663     		str	r6, [r4, #48]
 787:Drivers/STM32L4xx_HAL_Driver/Src/stm32l4xx_hal_dac.c **** 
 788:Drivers/STM32L4xx_HAL_Driver/Src/stm32l4xx_hal_dac.c ****     /* Set the DMA error callback for channel1 */
 789:Drivers/STM32L4xx_HAL_Driver/Src/stm32l4xx_hal_dac.c ****     hdac->DMA_Handle1->XferErrorCallback = DAC_DMAErrorCh1;
 346              		.loc 1 789 0
 347 0020 8468     		ldr	r4, [r0, #8]
 348 0022 324E     		ldr	r6, .L42+8
 349 0024 6663     		str	r6, [r4, #52]
 790:Drivers/STM32L4xx_HAL_Driver/Src/stm32l4xx_hal_dac.c **** 
 791:Drivers/STM32L4xx_HAL_Driver/Src/stm32l4xx_hal_dac.c ****     /* Enable the selected DAC channel1 DMA request */
 792:Drivers/STM32L4xx_HAL_Driver/Src/stm32l4xx_hal_dac.c ****     SET_BIT(hdac->Instance->CR, DAC_CR_DMAEN1);
 350              		.loc 1 792 0
 351 0026 0668     		ldr	r6, [r0]
 352 0028 3468     		ldr	r4, [r6]
 353 002a 44F48054 		orr	r4, r4, #4096
 354 002e 3460     		str	r4, [r6]
 793:Drivers/STM32L4xx_HAL_Driver/Src/stm32l4xx_hal_dac.c **** 
 794:Drivers/STM32L4xx_HAL_Driver/Src/stm32l4xx_hal_dac.c ****     /* Case of use of channel 1 */
 795:Drivers/STM32L4xx_HAL_Driver/Src/stm32l4xx_hal_dac.c ****     switch (Alignment)
 355              		.loc 1 795 0
 356 0030 042D     		cmp	r5, #4
 357 0032 05D0     		beq	.L27
 358 0034 082D     		cmp	r5, #8
 359 0036 06D0     		beq	.L28
 360 0038 25BB     		cbnz	r5, .L39
 796:Drivers/STM32L4xx_HAL_Driver/Src/stm32l4xx_hal_dac.c ****     {
 797:Drivers/STM32L4xx_HAL_Driver/Src/stm32l4xx_hal_dac.c ****       case DAC_ALIGN_12B_R:
 798:Drivers/STM32L4xx_HAL_Driver/Src/stm32l4xx_hal_dac.c ****         /* Get DHR12R1 address */
 799:Drivers/STM32L4xx_HAL_Driver/Src/stm32l4xx_hal_dac.c ****         tmpreg = (uint32_t)&hdac->Instance->DHR12R1;
 361              		.loc 1 799 0
 362 003a 0568     		ldr	r5, [r0]
 363 003c 0835     		adds	r5, r5, #8
 364              	.LVL19:
 800:Drivers/STM32L4xx_HAL_Driver/Src/stm32l4xx_hal_dac.c ****         break;
 365              		.loc 1 800 0
 366 003e 24E0     		b	.L26
 367              	.LVL20:
 368              	.L27:
 801:Drivers/STM32L4xx_HAL_Driver/Src/stm32l4xx_hal_dac.c ****       case DAC_ALIGN_12B_L:
 802:Drivers/STM32L4xx_HAL_Driver/Src/stm32l4xx_hal_dac.c ****         /* Get DHR12L1 address */
 803:Drivers/STM32L4xx_HAL_Driver/Src/stm32l4xx_hal_dac.c ****         tmpreg = (uint32_t)&hdac->Instance->DHR12L1;
 369              		.loc 1 803 0
 370 0040 0568     		ldr	r5, [r0]
 371 0042 0C35     		adds	r5, r5, #12
 372              	.LVL21:
 804:Drivers/STM32L4xx_HAL_Driver/Src/stm32l4xx_hal_dac.c ****         break;
 373              		.loc 1 804 0
 374 0044 21E0     		b	.L26
 375              	.LVL22:
 376              	.L28:
 805:Drivers/STM32L4xx_HAL_Driver/Src/stm32l4xx_hal_dac.c ****       case DAC_ALIGN_8B_R:
 806:Drivers/STM32L4xx_HAL_Driver/Src/stm32l4xx_hal_dac.c ****         /* Get DHR8R1 address */
 807:Drivers/STM32L4xx_HAL_Driver/Src/stm32l4xx_hal_dac.c ****         tmpreg = (uint32_t)&hdac->Instance->DHR8R1;
 377              		.loc 1 807 0
 378 0046 0568     		ldr	r5, [r0]
 379 0048 1035     		adds	r5, r5, #16
 380              	.LVL23:
ARM GAS  /tmp/ccNKo9M1.s 			page 22


 808:Drivers/STM32L4xx_HAL_Driver/Src/stm32l4xx_hal_dac.c ****         break;
 381              		.loc 1 808 0
 382 004a 1EE0     		b	.L26
 383              	.LVL24:
 384              	.L25:
 809:Drivers/STM32L4xx_HAL_Driver/Src/stm32l4xx_hal_dac.c ****       default:
 810:Drivers/STM32L4xx_HAL_Driver/Src/stm32l4xx_hal_dac.c ****         break;
 811:Drivers/STM32L4xx_HAL_Driver/Src/stm32l4xx_hal_dac.c ****     }
 812:Drivers/STM32L4xx_HAL_Driver/Src/stm32l4xx_hal_dac.c ****   }
 813:Drivers/STM32L4xx_HAL_Driver/Src/stm32l4xx_hal_dac.c ****   else
 814:Drivers/STM32L4xx_HAL_Driver/Src/stm32l4xx_hal_dac.c ****   {
 815:Drivers/STM32L4xx_HAL_Driver/Src/stm32l4xx_hal_dac.c ****     /* Set the DMA transfer complete callback for channel2 */
 816:Drivers/STM32L4xx_HAL_Driver/Src/stm32l4xx_hal_dac.c ****     hdac->DMA_Handle2->XferCpltCallback = DAC_DMAConvCpltCh2;
 385              		.loc 1 816 0
 386 004c C468     		ldr	r4, [r0, #12]
 387 004e 284E     		ldr	r6, .L42+12
 388 0050 E662     		str	r6, [r4, #44]
 817:Drivers/STM32L4xx_HAL_Driver/Src/stm32l4xx_hal_dac.c **** 
 818:Drivers/STM32L4xx_HAL_Driver/Src/stm32l4xx_hal_dac.c ****     /* Set the DMA half transfer complete callback for channel2 */
 819:Drivers/STM32L4xx_HAL_Driver/Src/stm32l4xx_hal_dac.c ****     hdac->DMA_Handle2->XferHalfCpltCallback = DAC_DMAHalfConvCpltCh2;
 389              		.loc 1 819 0
 390 0052 C468     		ldr	r4, [r0, #12]
 391 0054 274E     		ldr	r6, .L42+16
 392 0056 2663     		str	r6, [r4, #48]
 820:Drivers/STM32L4xx_HAL_Driver/Src/stm32l4xx_hal_dac.c **** 
 821:Drivers/STM32L4xx_HAL_Driver/Src/stm32l4xx_hal_dac.c ****     /* Set the DMA error callback for channel2 */
 822:Drivers/STM32L4xx_HAL_Driver/Src/stm32l4xx_hal_dac.c ****     hdac->DMA_Handle2->XferErrorCallback = DAC_DMAErrorCh2;
 393              		.loc 1 822 0
 394 0058 C468     		ldr	r4, [r0, #12]
 395 005a 274E     		ldr	r6, .L42+20
 396 005c 6663     		str	r6, [r4, #52]
 823:Drivers/STM32L4xx_HAL_Driver/Src/stm32l4xx_hal_dac.c **** 
 824:Drivers/STM32L4xx_HAL_Driver/Src/stm32l4xx_hal_dac.c ****     /* Enable the selected DAC channel2 DMA request */
 825:Drivers/STM32L4xx_HAL_Driver/Src/stm32l4xx_hal_dac.c ****     SET_BIT(hdac->Instance->CR, DAC_CR_DMAEN2);
 397              		.loc 1 825 0
 398 005e 0668     		ldr	r6, [r0]
 399 0060 3468     		ldr	r4, [r6]
 400 0062 44F08054 		orr	r4, r4, #268435456
 401 0066 3460     		str	r4, [r6]
 826:Drivers/STM32L4xx_HAL_Driver/Src/stm32l4xx_hal_dac.c **** 
 827:Drivers/STM32L4xx_HAL_Driver/Src/stm32l4xx_hal_dac.c ****     /* Case of use of channel 2 */
 828:Drivers/STM32L4xx_HAL_Driver/Src/stm32l4xx_hal_dac.c ****     switch (Alignment)
 402              		.loc 1 828 0
 403 0068 042D     		cmp	r5, #4
 404 006a 05D0     		beq	.L30
 405 006c 082D     		cmp	r5, #8
 406 006e 06D0     		beq	.L31
 407 0070 55B9     		cbnz	r5, .L40
 829:Drivers/STM32L4xx_HAL_Driver/Src/stm32l4xx_hal_dac.c ****     {
 830:Drivers/STM32L4xx_HAL_Driver/Src/stm32l4xx_hal_dac.c ****       case DAC_ALIGN_12B_R:
 831:Drivers/STM32L4xx_HAL_Driver/Src/stm32l4xx_hal_dac.c ****         /* Get DHR12R2 address */
 832:Drivers/STM32L4xx_HAL_Driver/Src/stm32l4xx_hal_dac.c ****         tmpreg = (uint32_t)&hdac->Instance->DHR12R2;
 408              		.loc 1 832 0
 409 0072 0568     		ldr	r5, [r0]
 410 0074 1435     		adds	r5, r5, #20
 411              	.LVL25:
 833:Drivers/STM32L4xx_HAL_Driver/Src/stm32l4xx_hal_dac.c ****         break;
ARM GAS  /tmp/ccNKo9M1.s 			page 23


 412              		.loc 1 833 0
 413 0076 08E0     		b	.L26
 414              	.LVL26:
 415              	.L30:
 834:Drivers/STM32L4xx_HAL_Driver/Src/stm32l4xx_hal_dac.c ****       case DAC_ALIGN_12B_L:
 835:Drivers/STM32L4xx_HAL_Driver/Src/stm32l4xx_hal_dac.c ****         /* Get DHR12L2 address */
 836:Drivers/STM32L4xx_HAL_Driver/Src/stm32l4xx_hal_dac.c ****         tmpreg = (uint32_t)&hdac->Instance->DHR12L2;
 416              		.loc 1 836 0
 417 0078 0568     		ldr	r5, [r0]
 418 007a 1835     		adds	r5, r5, #24
 419              	.LVL27:
 837:Drivers/STM32L4xx_HAL_Driver/Src/stm32l4xx_hal_dac.c ****         break;
 420              		.loc 1 837 0
 421 007c 05E0     		b	.L26
 422              	.LVL28:
 423              	.L31:
 838:Drivers/STM32L4xx_HAL_Driver/Src/stm32l4xx_hal_dac.c ****       case DAC_ALIGN_8B_R:
 839:Drivers/STM32L4xx_HAL_Driver/Src/stm32l4xx_hal_dac.c ****         /* Get DHR8R2 address */
 840:Drivers/STM32L4xx_HAL_Driver/Src/stm32l4xx_hal_dac.c ****         tmpreg = (uint32_t)&hdac->Instance->DHR8R2;
 424              		.loc 1 840 0
 425 007e 0568     		ldr	r5, [r0]
 426 0080 1C35     		adds	r5, r5, #28
 427              	.LVL29:
 841:Drivers/STM32L4xx_HAL_Driver/Src/stm32l4xx_hal_dac.c ****         break;
 428              		.loc 1 841 0
 429 0082 02E0     		b	.L26
 430              	.LVL30:
 431              	.L39:
 768:Drivers/STM32L4xx_HAL_Driver/Src/stm32l4xx_hal_dac.c **** 
 432              		.loc 1 768 0
 433 0084 0025     		movs	r5, #0
 434 0086 00E0     		b	.L26
 435              	.L40:
 436 0088 0025     		movs	r5, #0
 437              	.LVL31:
 438              	.L26:
 439 008a 1646     		mov	r6, r2
 440 008c 0F46     		mov	r7, r1
 441 008e 0446     		mov	r4, r0
 442              	.LVL32:
 842:Drivers/STM32L4xx_HAL_Driver/Src/stm32l4xx_hal_dac.c ****       default:
 843:Drivers/STM32L4xx_HAL_Driver/Src/stm32l4xx_hal_dac.c ****         break;
 844:Drivers/STM32L4xx_HAL_Driver/Src/stm32l4xx_hal_dac.c ****     }
 845:Drivers/STM32L4xx_HAL_Driver/Src/stm32l4xx_hal_dac.c ****   }
 846:Drivers/STM32L4xx_HAL_Driver/Src/stm32l4xx_hal_dac.c **** 
 847:Drivers/STM32L4xx_HAL_Driver/Src/stm32l4xx_hal_dac.c ****   /* Enable the DMA channel */
 848:Drivers/STM32L4xx_HAL_Driver/Src/stm32l4xx_hal_dac.c ****   if (Channel == DAC_CHANNEL_1)
 443              		.loc 1 848 0
 444 0090 51B9     		cbnz	r1, .L33
 849:Drivers/STM32L4xx_HAL_Driver/Src/stm32l4xx_hal_dac.c ****   {
 850:Drivers/STM32L4xx_HAL_Driver/Src/stm32l4xx_hal_dac.c ****     /* Enable the DAC DMA underrun interrupt */
 851:Drivers/STM32L4xx_HAL_Driver/Src/stm32l4xx_hal_dac.c ****     __HAL_DAC_ENABLE_IT(hdac, DAC_IT_DMAUDR1);
 445              		.loc 1 851 0
 446 0092 0168     		ldr	r1, [r0]
 447              	.LVL33:
 448 0094 0A68     		ldr	r2, [r1]
 449              	.LVL34:
ARM GAS  /tmp/ccNKo9M1.s 			page 24


 450 0096 42F40052 		orr	r2, r2, #8192
 451 009a 0A60     		str	r2, [r1]
 852:Drivers/STM32L4xx_HAL_Driver/Src/stm32l4xx_hal_dac.c **** 
 853:Drivers/STM32L4xx_HAL_Driver/Src/stm32l4xx_hal_dac.c ****     /* Enable the DMA channel */
 854:Drivers/STM32L4xx_HAL_Driver/Src/stm32l4xx_hal_dac.c ****     status = HAL_DMA_Start_IT(hdac->DMA_Handle1, (uint32_t)pData, tmpreg, Length);
 452              		.loc 1 854 0
 453 009c 2A46     		mov	r2, r5
 454 009e 3146     		mov	r1, r6
 455 00a0 8068     		ldr	r0, [r0, #8]
 456              	.LVL35:
 457 00a2 FFF7FEFF 		bl	HAL_DMA_Start_IT
 458              	.LVL36:
 459 00a6 09E0     		b	.L34
 460              	.LVL37:
 461              	.L33:
 855:Drivers/STM32L4xx_HAL_Driver/Src/stm32l4xx_hal_dac.c ****   }
 856:Drivers/STM32L4xx_HAL_Driver/Src/stm32l4xx_hal_dac.c ****   else
 857:Drivers/STM32L4xx_HAL_Driver/Src/stm32l4xx_hal_dac.c ****   {
 858:Drivers/STM32L4xx_HAL_Driver/Src/stm32l4xx_hal_dac.c ****     /* Enable the DAC DMA underrun interrupt */
 859:Drivers/STM32L4xx_HAL_Driver/Src/stm32l4xx_hal_dac.c ****     __HAL_DAC_ENABLE_IT(hdac, DAC_IT_DMAUDR2);
 462              		.loc 1 859 0
 463 00a8 0168     		ldr	r1, [r0]
 464              	.LVL38:
 465 00aa 0A68     		ldr	r2, [r1]
 466              	.LVL39:
 467 00ac 42F00052 		orr	r2, r2, #536870912
 468 00b0 0A60     		str	r2, [r1]
 860:Drivers/STM32L4xx_HAL_Driver/Src/stm32l4xx_hal_dac.c **** 
 861:Drivers/STM32L4xx_HAL_Driver/Src/stm32l4xx_hal_dac.c ****     /* Enable the DMA channel */
 862:Drivers/STM32L4xx_HAL_Driver/Src/stm32l4xx_hal_dac.c ****     status = HAL_DMA_Start_IT(hdac->DMA_Handle2, (uint32_t)pData, tmpreg, Length);
 469              		.loc 1 862 0
 470 00b2 2A46     		mov	r2, r5
 471 00b4 3146     		mov	r1, r6
 472 00b6 C068     		ldr	r0, [r0, #12]
 473              	.LVL40:
 474 00b8 FFF7FEFF 		bl	HAL_DMA_Start_IT
 475              	.LVL41:
 476              	.L34:
 863:Drivers/STM32L4xx_HAL_Driver/Src/stm32l4xx_hal_dac.c ****   }
 864:Drivers/STM32L4xx_HAL_Driver/Src/stm32l4xx_hal_dac.c **** 
 865:Drivers/STM32L4xx_HAL_Driver/Src/stm32l4xx_hal_dac.c ****   /* Process Unlocked */
 866:Drivers/STM32L4xx_HAL_Driver/Src/stm32l4xx_hal_dac.c ****   __HAL_UNLOCK(hdac);
 477              		.loc 1 866 0
 478 00bc 0023     		movs	r3, #0
 479 00be 6371     		strb	r3, [r4, #5]
 867:Drivers/STM32L4xx_HAL_Driver/Src/stm32l4xx_hal_dac.c **** 
 868:Drivers/STM32L4xx_HAL_Driver/Src/stm32l4xx_hal_dac.c ****   if (status == HAL_OK)
 480              		.loc 1 868 0
 481 00c0 48B9     		cbnz	r0, .L35
 869:Drivers/STM32L4xx_HAL_Driver/Src/stm32l4xx_hal_dac.c ****   {
 870:Drivers/STM32L4xx_HAL_Driver/Src/stm32l4xx_hal_dac.c ****     /* Enable the Peripheral */
 871:Drivers/STM32L4xx_HAL_Driver/Src/stm32l4xx_hal_dac.c ****     __HAL_DAC_ENABLE(hdac, Channel);
 482              		.loc 1 871 0
 483 00c2 2268     		ldr	r2, [r4]
 484 00c4 1468     		ldr	r4, [r2]
 485              	.LVL42:
 486 00c6 07F01001 		and	r1, r7, #16
ARM GAS  /tmp/ccNKo9M1.s 			page 25


 487 00ca 0123     		movs	r3, #1
 488 00cc 03FA01F1 		lsl	r1, r3, r1
 489 00d0 2143     		orrs	r1, r1, r4
 490 00d2 1160     		str	r1, [r2]
 491 00d4 F8BD     		pop	{r3, r4, r5, r6, r7, pc}
 492              	.LVL43:
 493              	.L35:
 872:Drivers/STM32L4xx_HAL_Driver/Src/stm32l4xx_hal_dac.c ****   }
 873:Drivers/STM32L4xx_HAL_Driver/Src/stm32l4xx_hal_dac.c ****   else
 874:Drivers/STM32L4xx_HAL_Driver/Src/stm32l4xx_hal_dac.c ****   {
 875:Drivers/STM32L4xx_HAL_Driver/Src/stm32l4xx_hal_dac.c ****     hdac->ErrorCode |= HAL_DAC_ERROR_DMA;
 494              		.loc 1 875 0
 495 00d6 2369     		ldr	r3, [r4, #16]
 496 00d8 43F00403 		orr	r3, r3, #4
 497 00dc 2361     		str	r3, [r4, #16]
 498 00de F8BD     		pop	{r3, r4, r5, r6, r7, pc}
 499              	.LVL44:
 500              	.L36:
 775:Drivers/STM32L4xx_HAL_Driver/Src/stm32l4xx_hal_dac.c **** 
 501              		.loc 1 775 0
 502 00e0 0220     		movs	r0, #2
 503              	.LVL45:
 876:Drivers/STM32L4xx_HAL_Driver/Src/stm32l4xx_hal_dac.c ****   }
 877:Drivers/STM32L4xx_HAL_Driver/Src/stm32l4xx_hal_dac.c **** 
 878:Drivers/STM32L4xx_HAL_Driver/Src/stm32l4xx_hal_dac.c ****   /* Return function status */
 879:Drivers/STM32L4xx_HAL_Driver/Src/stm32l4xx_hal_dac.c ****   return status;
 880:Drivers/STM32L4xx_HAL_Driver/Src/stm32l4xx_hal_dac.c **** }
 504              		.loc 1 880 0
 505 00e2 F8BD     		pop	{r3, r4, r5, r6, r7, pc}
 506              	.LVL46:
 507              	.L43:
 508              		.align	2
 509              	.L42:
 510 00e4 00000000 		.word	DAC_DMAConvCpltCh1
 511 00e8 00000000 		.word	DAC_DMAHalfConvCpltCh1
 512 00ec 00000000 		.word	DAC_DMAErrorCh1
 513 00f0 00000000 		.word	DAC_DMAConvCpltCh2
 514 00f4 00000000 		.word	DAC_DMAHalfConvCpltCh2
 515 00f8 00000000 		.word	DAC_DMAErrorCh2
 516              		.cfi_endproc
 517              	.LFE294:
 519              		.section	.text.HAL_DAC_Stop_DMA,"ax",%progbits
 520              		.align	2
 521              		.global	HAL_DAC_Stop_DMA
 522              		.thumb
 523              		.thumb_func
 525              	HAL_DAC_Stop_DMA:
 526              	.LFB295:
 881:Drivers/STM32L4xx_HAL_Driver/Src/stm32l4xx_hal_dac.c **** #endif  /* STM32L431xx STM32L432xx STM32L433xx STM32L442xx STM32L443xx                         */
 882:Drivers/STM32L4xx_HAL_Driver/Src/stm32l4xx_hal_dac.c ****         /* STM32L471xx STM32L475xx STM32L476xx STM32L485xx STM32L486xx STM32L496xx STM32L4A6xx */
 883:Drivers/STM32L4xx_HAL_Driver/Src/stm32l4xx_hal_dac.c ****         /* STM32L4P5xx STM32L4Q5xx                                                             */
 884:Drivers/STM32L4xx_HAL_Driver/Src/stm32l4xx_hal_dac.c ****         /* STM32L4R5xx STM32L4R7xx STM32L4R9xx STM32L4S5xx STM32L4S7xx STM32L4S9xx             */
 885:Drivers/STM32L4xx_HAL_Driver/Src/stm32l4xx_hal_dac.c **** 
 886:Drivers/STM32L4xx_HAL_Driver/Src/stm32l4xx_hal_dac.c **** /**
 887:Drivers/STM32L4xx_HAL_Driver/Src/stm32l4xx_hal_dac.c ****   * @brief  Disables DAC and stop conversion of channel.
 888:Drivers/STM32L4xx_HAL_Driver/Src/stm32l4xx_hal_dac.c ****   * @param  hdac pointer to a DAC_HandleTypeDef structure that contains
 889:Drivers/STM32L4xx_HAL_Driver/Src/stm32l4xx_hal_dac.c ****   *         the configuration information for the specified DAC.
ARM GAS  /tmp/ccNKo9M1.s 			page 26


 890:Drivers/STM32L4xx_HAL_Driver/Src/stm32l4xx_hal_dac.c ****   * @param  Channel The selected DAC channel.
 891:Drivers/STM32L4xx_HAL_Driver/Src/stm32l4xx_hal_dac.c ****   *          This parameter can be one of the following values:
 892:Drivers/STM32L4xx_HAL_Driver/Src/stm32l4xx_hal_dac.c ****   *            @arg DAC_CHANNEL_1: DAC Channel1 selected
 893:Drivers/STM32L4xx_HAL_Driver/Src/stm32l4xx_hal_dac.c ****   *            @arg DAC_CHANNEL_2: DAC Channel2 selected
 894:Drivers/STM32L4xx_HAL_Driver/Src/stm32l4xx_hal_dac.c ****   * @retval HAL status
 895:Drivers/STM32L4xx_HAL_Driver/Src/stm32l4xx_hal_dac.c ****   */
 896:Drivers/STM32L4xx_HAL_Driver/Src/stm32l4xx_hal_dac.c **** HAL_StatusTypeDef HAL_DAC_Stop_DMA(DAC_HandleTypeDef *hdac, uint32_t Channel)
 897:Drivers/STM32L4xx_HAL_Driver/Src/stm32l4xx_hal_dac.c **** {
 527              		.loc 1 897 0
 528              		.cfi_startproc
 529              		@ args = 0, pretend = 0, frame = 0
 530              		@ frame_needed = 0, uses_anonymous_args = 0
 531              	.LVL47:
 532 0000 38B5     		push	{r3, r4, r5, lr}
 533              	.LCFI11:
 534              		.cfi_def_cfa_offset 16
 535              		.cfi_offset 3, -16
 536              		.cfi_offset 4, -12
 537              		.cfi_offset 5, -8
 538              		.cfi_offset 14, -4
 539 0002 0446     		mov	r4, r0
 898:Drivers/STM32L4xx_HAL_Driver/Src/stm32l4xx_hal_dac.c ****   /* Check the parameters */
 899:Drivers/STM32L4xx_HAL_Driver/Src/stm32l4xx_hal_dac.c ****   assert_param(IS_DAC_CHANNEL(Channel));
 900:Drivers/STM32L4xx_HAL_Driver/Src/stm32l4xx_hal_dac.c **** 
 901:Drivers/STM32L4xx_HAL_Driver/Src/stm32l4xx_hal_dac.c ****   /* Disable the selected DAC channel DMA request */
 902:Drivers/STM32L4xx_HAL_Driver/Src/stm32l4xx_hal_dac.c ****   hdac->Instance->CR &= ~(DAC_CR_DMAEN1 << (Channel & 0x10UL));
 540              		.loc 1 902 0
 541 0004 0368     		ldr	r3, [r0]
 542 0006 1868     		ldr	r0, [r3]
 543              	.LVL48:
 544 0008 01F01005 		and	r5, r1, #16
 545 000c 4FF48052 		mov	r2, #4096
 546 0010 AA40     		lsls	r2, r2, r5
 547 0012 20EA0202 		bic	r2, r0, r2
 548 0016 1A60     		str	r2, [r3]
 903:Drivers/STM32L4xx_HAL_Driver/Src/stm32l4xx_hal_dac.c **** 
 904:Drivers/STM32L4xx_HAL_Driver/Src/stm32l4xx_hal_dac.c ****   /* Disable the Peripheral */
 905:Drivers/STM32L4xx_HAL_Driver/Src/stm32l4xx_hal_dac.c ****   __HAL_DAC_DISABLE(hdac, Channel);
 549              		.loc 1 905 0
 550 0018 2068     		ldr	r0, [r4]
 551 001a 0268     		ldr	r2, [r0]
 552 001c 0123     		movs	r3, #1
 553 001e AB40     		lsls	r3, r3, r5
 554 0020 22EA0303 		bic	r3, r2, r3
 555 0024 0360     		str	r3, [r0]
 906:Drivers/STM32L4xx_HAL_Driver/Src/stm32l4xx_hal_dac.c **** 
 907:Drivers/STM32L4xx_HAL_Driver/Src/stm32l4xx_hal_dac.c ****   /* Disable the DMA channel */
 908:Drivers/STM32L4xx_HAL_Driver/Src/stm32l4xx_hal_dac.c **** #if defined (STM32L431xx) || defined (STM32L432xx) || defined (STM32L433xx) || defined (STM32L442xx
 909:Drivers/STM32L4xx_HAL_Driver/Src/stm32l4xx_hal_dac.c ****     defined (STM32L471xx) || defined (STM32L475xx) || defined (STM32L476xx) || defined (STM32L485xx
 910:Drivers/STM32L4xx_HAL_Driver/Src/stm32l4xx_hal_dac.c ****     defined (STM32L4P5xx) || defined (STM32L4Q5xx) || \
 911:Drivers/STM32L4xx_HAL_Driver/Src/stm32l4xx_hal_dac.c ****     defined (STM32L4R5xx) || defined (STM32L4R7xx) || defined (STM32L4R9xx) || defined (STM32L4S5xx
 912:Drivers/STM32L4xx_HAL_Driver/Src/stm32l4xx_hal_dac.c ****   /* Channel1 is used */
 913:Drivers/STM32L4xx_HAL_Driver/Src/stm32l4xx_hal_dac.c ****   if (Channel == DAC_CHANNEL_1)
 556              		.loc 1 913 0
 557 0026 41B9     		cbnz	r1, .L45
 914:Drivers/STM32L4xx_HAL_Driver/Src/stm32l4xx_hal_dac.c ****   {
 915:Drivers/STM32L4xx_HAL_Driver/Src/stm32l4xx_hal_dac.c ****     /* Disable the DMA channel */
ARM GAS  /tmp/ccNKo9M1.s 			page 27


 916:Drivers/STM32L4xx_HAL_Driver/Src/stm32l4xx_hal_dac.c ****     (void)HAL_DMA_Abort(hdac->DMA_Handle1);
 558              		.loc 1 916 0
 559 0028 A068     		ldr	r0, [r4, #8]
 560 002a FFF7FEFF 		bl	HAL_DMA_Abort
 561              	.LVL49:
 917:Drivers/STM32L4xx_HAL_Driver/Src/stm32l4xx_hal_dac.c **** 
 918:Drivers/STM32L4xx_HAL_Driver/Src/stm32l4xx_hal_dac.c ****     /* Disable the DAC DMA underrun interrupt */
 919:Drivers/STM32L4xx_HAL_Driver/Src/stm32l4xx_hal_dac.c ****     __HAL_DAC_DISABLE_IT(hdac, DAC_IT_DMAUDR1);
 562              		.loc 1 919 0
 563 002e 2268     		ldr	r2, [r4]
 564 0030 1368     		ldr	r3, [r2]
 565 0032 23F40053 		bic	r3, r3, #8192
 566 0036 1360     		str	r3, [r2]
 567 0038 07E0     		b	.L46
 568              	.LVL50:
 569              	.L45:
 920:Drivers/STM32L4xx_HAL_Driver/Src/stm32l4xx_hal_dac.c ****   }
 921:Drivers/STM32L4xx_HAL_Driver/Src/stm32l4xx_hal_dac.c ****   else /* Channel2 is used for */
 922:Drivers/STM32L4xx_HAL_Driver/Src/stm32l4xx_hal_dac.c ****   {
 923:Drivers/STM32L4xx_HAL_Driver/Src/stm32l4xx_hal_dac.c ****     /* Disable the DMA channel */
 924:Drivers/STM32L4xx_HAL_Driver/Src/stm32l4xx_hal_dac.c ****     (void)HAL_DMA_Abort(hdac->DMA_Handle2);
 570              		.loc 1 924 0
 571 003a E068     		ldr	r0, [r4, #12]
 572 003c FFF7FEFF 		bl	HAL_DMA_Abort
 573              	.LVL51:
 925:Drivers/STM32L4xx_HAL_Driver/Src/stm32l4xx_hal_dac.c **** 
 926:Drivers/STM32L4xx_HAL_Driver/Src/stm32l4xx_hal_dac.c ****     /* Disable the DAC DMA underrun interrupt */
 927:Drivers/STM32L4xx_HAL_Driver/Src/stm32l4xx_hal_dac.c ****     __HAL_DAC_DISABLE_IT(hdac, DAC_IT_DMAUDR2);
 574              		.loc 1 927 0
 575 0040 2268     		ldr	r2, [r4]
 576 0042 1368     		ldr	r3, [r2]
 577 0044 23F00053 		bic	r3, r3, #536870912
 578 0048 1360     		str	r3, [r2]
 579              	.L46:
 928:Drivers/STM32L4xx_HAL_Driver/Src/stm32l4xx_hal_dac.c ****   }
 929:Drivers/STM32L4xx_HAL_Driver/Src/stm32l4xx_hal_dac.c **** #endif  /* STM32L431xx STM32L432xx STM32L433xx STM32L442xx STM32L443xx                         */
 930:Drivers/STM32L4xx_HAL_Driver/Src/stm32l4xx_hal_dac.c ****         /* STM32L471xx STM32L475xx STM32L476xx STM32L485xx STM32L486xx STM32L496xx STM32L4A6xx */
 931:Drivers/STM32L4xx_HAL_Driver/Src/stm32l4xx_hal_dac.c ****         /* STM32L4P5xx STM32L4Q5xx                                                             */
 932:Drivers/STM32L4xx_HAL_Driver/Src/stm32l4xx_hal_dac.c ****         /* STM32L4R5xx STM32L4R7xx STM32L4R9xx STM32L4S5xx STM32L4S7xx STM32L4S9xx             */
 933:Drivers/STM32L4xx_HAL_Driver/Src/stm32l4xx_hal_dac.c **** 
 934:Drivers/STM32L4xx_HAL_Driver/Src/stm32l4xx_hal_dac.c **** #if defined (STM32L451xx) || defined (STM32L452xx) || defined (STM32L462xx)
 935:Drivers/STM32L4xx_HAL_Driver/Src/stm32l4xx_hal_dac.c ****   /* Disable the DMA channel */
 936:Drivers/STM32L4xx_HAL_Driver/Src/stm32l4xx_hal_dac.c ****   (void)HAL_DMA_Abort(hdac->DMA_Handle1);
 937:Drivers/STM32L4xx_HAL_Driver/Src/stm32l4xx_hal_dac.c **** 
 938:Drivers/STM32L4xx_HAL_Driver/Src/stm32l4xx_hal_dac.c ****   /* Disable the DAC DMA underrun interrupt */
 939:Drivers/STM32L4xx_HAL_Driver/Src/stm32l4xx_hal_dac.c ****   __HAL_DAC_DISABLE_IT(hdac, DAC_IT_DMAUDR1);
 940:Drivers/STM32L4xx_HAL_Driver/Src/stm32l4xx_hal_dac.c **** #endif /* STM32L451xx STM32L452xx STM32L462xx */
 941:Drivers/STM32L4xx_HAL_Driver/Src/stm32l4xx_hal_dac.c **** 
 942:Drivers/STM32L4xx_HAL_Driver/Src/stm32l4xx_hal_dac.c ****   /* Return function status */
 943:Drivers/STM32L4xx_HAL_Driver/Src/stm32l4xx_hal_dac.c ****   return HAL_OK;
 944:Drivers/STM32L4xx_HAL_Driver/Src/stm32l4xx_hal_dac.c **** }
 580              		.loc 1 944 0
 581 004a 0020     		movs	r0, #0
 582 004c 38BD     		pop	{r3, r4, r5, pc}
 583              		.cfi_endproc
 584              	.LFE295:
 586 004e 00BF     		.section	.text.HAL_DAC_SetValue,"ax",%progbits
ARM GAS  /tmp/ccNKo9M1.s 			page 28


 587              		.align	2
 588              		.global	HAL_DAC_SetValue
 589              		.thumb
 590              		.thumb_func
 592              	HAL_DAC_SetValue:
 593              	.LFB297:
 945:Drivers/STM32L4xx_HAL_Driver/Src/stm32l4xx_hal_dac.c **** 
 946:Drivers/STM32L4xx_HAL_Driver/Src/stm32l4xx_hal_dac.c **** /* DAC channel 2 is available on top of DAC channel 1 in */
 947:Drivers/STM32L4xx_HAL_Driver/Src/stm32l4xx_hal_dac.c **** /* STM32L431xx STM32L432xx STM32L433xx STM32L442xx STM32L443xx                         */
 948:Drivers/STM32L4xx_HAL_Driver/Src/stm32l4xx_hal_dac.c **** /* STM32L471xx STM32L475xx STM32L476xx STM32L485xx STM32L486xx STM32L496xx STM32L4A6xx */
 949:Drivers/STM32L4xx_HAL_Driver/Src/stm32l4xx_hal_dac.c **** 
 950:Drivers/STM32L4xx_HAL_Driver/Src/stm32l4xx_hal_dac.c **** /**
 951:Drivers/STM32L4xx_HAL_Driver/Src/stm32l4xx_hal_dac.c ****   * @brief  Handles DAC interrupt request
 952:Drivers/STM32L4xx_HAL_Driver/Src/stm32l4xx_hal_dac.c ****   *         This function uses the interruption of DMA
 953:Drivers/STM32L4xx_HAL_Driver/Src/stm32l4xx_hal_dac.c ****   *         underrun.
 954:Drivers/STM32L4xx_HAL_Driver/Src/stm32l4xx_hal_dac.c ****   * @param  hdac pointer to a DAC_HandleTypeDef structure that contains
 955:Drivers/STM32L4xx_HAL_Driver/Src/stm32l4xx_hal_dac.c ****   *         the configuration information for the specified DAC.
 956:Drivers/STM32L4xx_HAL_Driver/Src/stm32l4xx_hal_dac.c ****   * @retval None
 957:Drivers/STM32L4xx_HAL_Driver/Src/stm32l4xx_hal_dac.c ****   */
 958:Drivers/STM32L4xx_HAL_Driver/Src/stm32l4xx_hal_dac.c **** void HAL_DAC_IRQHandler(DAC_HandleTypeDef *hdac)
 959:Drivers/STM32L4xx_HAL_Driver/Src/stm32l4xx_hal_dac.c **** {
 960:Drivers/STM32L4xx_HAL_Driver/Src/stm32l4xx_hal_dac.c ****   if (__HAL_DAC_GET_IT_SOURCE(hdac, DAC_IT_DMAUDR1))
 961:Drivers/STM32L4xx_HAL_Driver/Src/stm32l4xx_hal_dac.c ****   {
 962:Drivers/STM32L4xx_HAL_Driver/Src/stm32l4xx_hal_dac.c ****     /* Check underrun flag of DAC channel 1 */
 963:Drivers/STM32L4xx_HAL_Driver/Src/stm32l4xx_hal_dac.c ****     if (__HAL_DAC_GET_FLAG(hdac, DAC_FLAG_DMAUDR1))
 964:Drivers/STM32L4xx_HAL_Driver/Src/stm32l4xx_hal_dac.c ****     {
 965:Drivers/STM32L4xx_HAL_Driver/Src/stm32l4xx_hal_dac.c ****       /* Change DAC state to error state */
 966:Drivers/STM32L4xx_HAL_Driver/Src/stm32l4xx_hal_dac.c ****       hdac->State = HAL_DAC_STATE_ERROR;
 967:Drivers/STM32L4xx_HAL_Driver/Src/stm32l4xx_hal_dac.c **** 
 968:Drivers/STM32L4xx_HAL_Driver/Src/stm32l4xx_hal_dac.c ****       /* Set DAC error code to chanel1 DMA underrun error */
 969:Drivers/STM32L4xx_HAL_Driver/Src/stm32l4xx_hal_dac.c ****       SET_BIT(hdac->ErrorCode, HAL_DAC_ERROR_DMAUNDERRUNCH1);
 970:Drivers/STM32L4xx_HAL_Driver/Src/stm32l4xx_hal_dac.c **** 
 971:Drivers/STM32L4xx_HAL_Driver/Src/stm32l4xx_hal_dac.c ****       /* Clear the underrun flag */
 972:Drivers/STM32L4xx_HAL_Driver/Src/stm32l4xx_hal_dac.c ****       __HAL_DAC_CLEAR_FLAG(hdac, DAC_FLAG_DMAUDR1);
 973:Drivers/STM32L4xx_HAL_Driver/Src/stm32l4xx_hal_dac.c **** 
 974:Drivers/STM32L4xx_HAL_Driver/Src/stm32l4xx_hal_dac.c ****       /* Disable the selected DAC channel1 DMA request */
 975:Drivers/STM32L4xx_HAL_Driver/Src/stm32l4xx_hal_dac.c ****       CLEAR_BIT(hdac->Instance->CR, DAC_CR_DMAEN1);
 976:Drivers/STM32L4xx_HAL_Driver/Src/stm32l4xx_hal_dac.c **** 
 977:Drivers/STM32L4xx_HAL_Driver/Src/stm32l4xx_hal_dac.c ****       /* Error callback */
 978:Drivers/STM32L4xx_HAL_Driver/Src/stm32l4xx_hal_dac.c **** #if (USE_HAL_DAC_REGISTER_CALLBACKS == 1)
 979:Drivers/STM32L4xx_HAL_Driver/Src/stm32l4xx_hal_dac.c ****       hdac->DMAUnderrunCallbackCh1(hdac);
 980:Drivers/STM32L4xx_HAL_Driver/Src/stm32l4xx_hal_dac.c **** #else
 981:Drivers/STM32L4xx_HAL_Driver/Src/stm32l4xx_hal_dac.c ****       HAL_DAC_DMAUnderrunCallbackCh1(hdac);
 982:Drivers/STM32L4xx_HAL_Driver/Src/stm32l4xx_hal_dac.c **** #endif /* USE_HAL_DAC_REGISTER_CALLBACKS */
 983:Drivers/STM32L4xx_HAL_Driver/Src/stm32l4xx_hal_dac.c ****     }
 984:Drivers/STM32L4xx_HAL_Driver/Src/stm32l4xx_hal_dac.c ****   }
 985:Drivers/STM32L4xx_HAL_Driver/Src/stm32l4xx_hal_dac.c **** #if defined (STM32L431xx) || defined (STM32L432xx) || defined (STM32L433xx) || defined (STM32L442xx
 986:Drivers/STM32L4xx_HAL_Driver/Src/stm32l4xx_hal_dac.c ****     defined (STM32L471xx) || defined (STM32L475xx) || defined (STM32L476xx) || defined (STM32L485xx
 987:Drivers/STM32L4xx_HAL_Driver/Src/stm32l4xx_hal_dac.c ****     defined (STM32L4P5xx) || defined (STM32L4Q5xx) || \
 988:Drivers/STM32L4xx_HAL_Driver/Src/stm32l4xx_hal_dac.c ****     defined (STM32L4R5xx) || defined (STM32L4R7xx) || defined (STM32L4R9xx) || defined (STM32L4S5xx
 989:Drivers/STM32L4xx_HAL_Driver/Src/stm32l4xx_hal_dac.c ****   if(__HAL_DAC_GET_IT_SOURCE(hdac, DAC_IT_DMAUDR2))
 990:Drivers/STM32L4xx_HAL_Driver/Src/stm32l4xx_hal_dac.c ****   {
 991:Drivers/STM32L4xx_HAL_Driver/Src/stm32l4xx_hal_dac.c ****     /* Check underrun flag of DAC channel 2 */
 992:Drivers/STM32L4xx_HAL_Driver/Src/stm32l4xx_hal_dac.c ****     if (__HAL_DAC_GET_FLAG(hdac, DAC_FLAG_DMAUDR2))
 993:Drivers/STM32L4xx_HAL_Driver/Src/stm32l4xx_hal_dac.c ****     {
 994:Drivers/STM32L4xx_HAL_Driver/Src/stm32l4xx_hal_dac.c ****       /* Change DAC state to error state */
 995:Drivers/STM32L4xx_HAL_Driver/Src/stm32l4xx_hal_dac.c ****       hdac->State = HAL_DAC_STATE_ERROR;
ARM GAS  /tmp/ccNKo9M1.s 			page 29


 996:Drivers/STM32L4xx_HAL_Driver/Src/stm32l4xx_hal_dac.c **** 
 997:Drivers/STM32L4xx_HAL_Driver/Src/stm32l4xx_hal_dac.c ****       /* Set DAC error code to channel2 DMA underrun error */
 998:Drivers/STM32L4xx_HAL_Driver/Src/stm32l4xx_hal_dac.c ****       SET_BIT(hdac->ErrorCode, HAL_DAC_ERROR_DMAUNDERRUNCH2);
 999:Drivers/STM32L4xx_HAL_Driver/Src/stm32l4xx_hal_dac.c **** 
1000:Drivers/STM32L4xx_HAL_Driver/Src/stm32l4xx_hal_dac.c ****       /* Clear the underrun flag */
1001:Drivers/STM32L4xx_HAL_Driver/Src/stm32l4xx_hal_dac.c ****       __HAL_DAC_CLEAR_FLAG(hdac, DAC_FLAG_DMAUDR2);
1002:Drivers/STM32L4xx_HAL_Driver/Src/stm32l4xx_hal_dac.c **** 
1003:Drivers/STM32L4xx_HAL_Driver/Src/stm32l4xx_hal_dac.c ****       /* Disable the selected DAC channel2 DMA request */
1004:Drivers/STM32L4xx_HAL_Driver/Src/stm32l4xx_hal_dac.c ****       CLEAR_BIT(hdac->Instance->CR, DAC_CR_DMAEN2);
1005:Drivers/STM32L4xx_HAL_Driver/Src/stm32l4xx_hal_dac.c **** 
1006:Drivers/STM32L4xx_HAL_Driver/Src/stm32l4xx_hal_dac.c ****       /* Error callback */
1007:Drivers/STM32L4xx_HAL_Driver/Src/stm32l4xx_hal_dac.c **** #if (USE_HAL_DAC_REGISTER_CALLBACKS == 1)
1008:Drivers/STM32L4xx_HAL_Driver/Src/stm32l4xx_hal_dac.c ****       hdac->DMAUnderrunCallbackCh2(hdac);
1009:Drivers/STM32L4xx_HAL_Driver/Src/stm32l4xx_hal_dac.c **** #else
1010:Drivers/STM32L4xx_HAL_Driver/Src/stm32l4xx_hal_dac.c ****       HAL_DACEx_DMAUnderrunCallbackCh2(hdac);
1011:Drivers/STM32L4xx_HAL_Driver/Src/stm32l4xx_hal_dac.c **** #endif /* USE_HAL_DAC_REGISTER_CALLBACKS */
1012:Drivers/STM32L4xx_HAL_Driver/Src/stm32l4xx_hal_dac.c ****     }
1013:Drivers/STM32L4xx_HAL_Driver/Src/stm32l4xx_hal_dac.c ****   }
1014:Drivers/STM32L4xx_HAL_Driver/Src/stm32l4xx_hal_dac.c **** #endif  /* STM32L431xx STM32L432xx STM32L433xx STM32L442xx STM32L443xx                         */
1015:Drivers/STM32L4xx_HAL_Driver/Src/stm32l4xx_hal_dac.c ****         /* STM32L471xx STM32L475xx STM32L476xx STM32L485xx STM32L486xx STM32L496xx STM32L4A6xx */
1016:Drivers/STM32L4xx_HAL_Driver/Src/stm32l4xx_hal_dac.c ****         /* STM32L4P5xx STM32L4Q5xx                                                             */
1017:Drivers/STM32L4xx_HAL_Driver/Src/stm32l4xx_hal_dac.c ****         /* STM32L4R5xx STM32L4R7xx STM32L4R9xx STM32L4S5xx STM32L4S7xx STM32L4S9xx             */
1018:Drivers/STM32L4xx_HAL_Driver/Src/stm32l4xx_hal_dac.c **** }
1019:Drivers/STM32L4xx_HAL_Driver/Src/stm32l4xx_hal_dac.c **** 
1020:Drivers/STM32L4xx_HAL_Driver/Src/stm32l4xx_hal_dac.c **** /**
1021:Drivers/STM32L4xx_HAL_Driver/Src/stm32l4xx_hal_dac.c ****   * @brief  Set the specified data holding register value for DAC channel.
1022:Drivers/STM32L4xx_HAL_Driver/Src/stm32l4xx_hal_dac.c ****   * @param  hdac pointer to a DAC_HandleTypeDef structure that contains
1023:Drivers/STM32L4xx_HAL_Driver/Src/stm32l4xx_hal_dac.c ****   *         the configuration information for the specified DAC.
1024:Drivers/STM32L4xx_HAL_Driver/Src/stm32l4xx_hal_dac.c ****   * @param  Channel The selected DAC channel.
1025:Drivers/STM32L4xx_HAL_Driver/Src/stm32l4xx_hal_dac.c ****   *          This parameter can be one of the following values:
1026:Drivers/STM32L4xx_HAL_Driver/Src/stm32l4xx_hal_dac.c ****   *            @arg DAC_CHANNEL_1: DAC Channel1 selected
1027:Drivers/STM32L4xx_HAL_Driver/Src/stm32l4xx_hal_dac.c ****   *            @arg DAC_CHANNEL_2: DAC Channel2 selected
1028:Drivers/STM32L4xx_HAL_Driver/Src/stm32l4xx_hal_dac.c ****   * @param  Alignment Specifies the data alignment.
1029:Drivers/STM32L4xx_HAL_Driver/Src/stm32l4xx_hal_dac.c ****   *          This parameter can be one of the following values:
1030:Drivers/STM32L4xx_HAL_Driver/Src/stm32l4xx_hal_dac.c ****   *            @arg DAC_ALIGN_8B_R: 8bit right data alignment selected
1031:Drivers/STM32L4xx_HAL_Driver/Src/stm32l4xx_hal_dac.c ****   *            @arg DAC_ALIGN_12B_L: 12bit left data alignment selected
1032:Drivers/STM32L4xx_HAL_Driver/Src/stm32l4xx_hal_dac.c ****   *            @arg DAC_ALIGN_12B_R: 12bit right data alignment selected
1033:Drivers/STM32L4xx_HAL_Driver/Src/stm32l4xx_hal_dac.c ****   * @param  Data Data to be loaded in the selected data holding register.
1034:Drivers/STM32L4xx_HAL_Driver/Src/stm32l4xx_hal_dac.c ****   * @retval HAL status
1035:Drivers/STM32L4xx_HAL_Driver/Src/stm32l4xx_hal_dac.c ****   */
1036:Drivers/STM32L4xx_HAL_Driver/Src/stm32l4xx_hal_dac.c **** HAL_StatusTypeDef HAL_DAC_SetValue(DAC_HandleTypeDef *hdac, uint32_t Channel, uint32_t Alignment, u
1037:Drivers/STM32L4xx_HAL_Driver/Src/stm32l4xx_hal_dac.c **** {
 594              		.loc 1 1037 0
 595              		.cfi_startproc
 596              		@ args = 0, pretend = 0, frame = 8
 597              		@ frame_needed = 0, uses_anonymous_args = 0
 598              		@ link register save eliminated.
 599              	.LVL52:
 600 0000 10B4     		push	{r4}
 601              	.LCFI12:
 602              		.cfi_def_cfa_offset 4
 603              		.cfi_offset 4, -4
 604 0002 83B0     		sub	sp, sp, #12
 605              	.LCFI13:
 606              		.cfi_def_cfa_offset 16
1038:Drivers/STM32L4xx_HAL_Driver/Src/stm32l4xx_hal_dac.c ****   __IO uint32_t tmp = 0;
 607              		.loc 1 1038 0
ARM GAS  /tmp/ccNKo9M1.s 			page 30


 608 0004 0024     		movs	r4, #0
 609 0006 0194     		str	r4, [sp, #4]
1039:Drivers/STM32L4xx_HAL_Driver/Src/stm32l4xx_hal_dac.c **** 
1040:Drivers/STM32L4xx_HAL_Driver/Src/stm32l4xx_hal_dac.c ****   /* Check the parameters */
1041:Drivers/STM32L4xx_HAL_Driver/Src/stm32l4xx_hal_dac.c ****   assert_param(IS_DAC_CHANNEL(Channel));
1042:Drivers/STM32L4xx_HAL_Driver/Src/stm32l4xx_hal_dac.c ****   assert_param(IS_DAC_ALIGN(Alignment));
1043:Drivers/STM32L4xx_HAL_Driver/Src/stm32l4xx_hal_dac.c ****   assert_param(IS_DAC_DATA(Data));
1044:Drivers/STM32L4xx_HAL_Driver/Src/stm32l4xx_hal_dac.c **** 
1045:Drivers/STM32L4xx_HAL_Driver/Src/stm32l4xx_hal_dac.c ****   tmp = (uint32_t)hdac->Instance;
 610              		.loc 1 1045 0
 611 0008 0068     		ldr	r0, [r0]
 612              	.LVL53:
 613 000a 0190     		str	r0, [sp, #4]
1046:Drivers/STM32L4xx_HAL_Driver/Src/stm32l4xx_hal_dac.c ****   if (Channel == DAC_CHANNEL_1)
 614              		.loc 1 1046 0
 615 000c 21B9     		cbnz	r1, .L49
1047:Drivers/STM32L4xx_HAL_Driver/Src/stm32l4xx_hal_dac.c ****   {
1048:Drivers/STM32L4xx_HAL_Driver/Src/stm32l4xx_hal_dac.c ****     tmp += DAC_DHR12R1_ALIGNMENT(Alignment);
 616              		.loc 1 1048 0
 617 000e 0199     		ldr	r1, [sp, #4]
 618              	.LVL54:
 619 0010 0A44     		add	r2, r2, r1
 620              	.LVL55:
 621 0012 0832     		adds	r2, r2, #8
 622 0014 0192     		str	r2, [sp, #4]
 623 0016 03E0     		b	.L50
 624              	.LVL56:
 625              	.L49:
1049:Drivers/STM32L4xx_HAL_Driver/Src/stm32l4xx_hal_dac.c ****   }
1050:Drivers/STM32L4xx_HAL_Driver/Src/stm32l4xx_hal_dac.c ****   else
1051:Drivers/STM32L4xx_HAL_Driver/Src/stm32l4xx_hal_dac.c ****   {
1052:Drivers/STM32L4xx_HAL_Driver/Src/stm32l4xx_hal_dac.c ****     tmp += DAC_DHR12R2_ALIGNMENT(Alignment);
 626              		.loc 1 1052 0
 627 0018 0199     		ldr	r1, [sp, #4]
 628              	.LVL57:
 629 001a 0A44     		add	r2, r2, r1
 630              	.LVL58:
 631 001c 1432     		adds	r2, r2, #20
 632 001e 0192     		str	r2, [sp, #4]
 633              	.L50:
1053:Drivers/STM32L4xx_HAL_Driver/Src/stm32l4xx_hal_dac.c ****   }
1054:Drivers/STM32L4xx_HAL_Driver/Src/stm32l4xx_hal_dac.c **** 
1055:Drivers/STM32L4xx_HAL_Driver/Src/stm32l4xx_hal_dac.c ****   /* Set the DAC channel selected data holding register */
1056:Drivers/STM32L4xx_HAL_Driver/Src/stm32l4xx_hal_dac.c ****   *(__IO uint32_t *) tmp = Data;
 634              		.loc 1 1056 0
 635 0020 019A     		ldr	r2, [sp, #4]
 636 0022 1360     		str	r3, [r2]
1057:Drivers/STM32L4xx_HAL_Driver/Src/stm32l4xx_hal_dac.c **** 
1058:Drivers/STM32L4xx_HAL_Driver/Src/stm32l4xx_hal_dac.c ****   /* Return function status */
1059:Drivers/STM32L4xx_HAL_Driver/Src/stm32l4xx_hal_dac.c ****   return HAL_OK;
1060:Drivers/STM32L4xx_HAL_Driver/Src/stm32l4xx_hal_dac.c **** }
 637              		.loc 1 1060 0
 638 0024 0020     		movs	r0, #0
 639 0026 03B0     		add	sp, sp, #12
 640              	.LCFI14:
 641              		.cfi_def_cfa_offset 4
 642              		@ sp needed
ARM GAS  /tmp/ccNKo9M1.s 			page 31


 643 0028 5DF8044B 		ldr	r4, [sp], #4
 644              	.LCFI15:
 645              		.cfi_restore 4
 646              		.cfi_def_cfa_offset 0
 647 002c 7047     		bx	lr
 648              		.cfi_endproc
 649              	.LFE297:
 651 002e 00BF     		.section	.text.HAL_DAC_ConvCpltCallbackCh1,"ax",%progbits
 652              		.align	2
 653              		.weak	HAL_DAC_ConvCpltCallbackCh1
 654              		.thumb
 655              		.thumb_func
 657              	HAL_DAC_ConvCpltCallbackCh1:
 658              	.LFB298:
1061:Drivers/STM32L4xx_HAL_Driver/Src/stm32l4xx_hal_dac.c **** 
1062:Drivers/STM32L4xx_HAL_Driver/Src/stm32l4xx_hal_dac.c **** /**
1063:Drivers/STM32L4xx_HAL_Driver/Src/stm32l4xx_hal_dac.c ****   * @brief  Conversion complete callback in non-blocking mode for Channel1
1064:Drivers/STM32L4xx_HAL_Driver/Src/stm32l4xx_hal_dac.c ****   * @param  hdac pointer to a DAC_HandleTypeDef structure that contains
1065:Drivers/STM32L4xx_HAL_Driver/Src/stm32l4xx_hal_dac.c ****   *         the configuration information for the specified DAC.
1066:Drivers/STM32L4xx_HAL_Driver/Src/stm32l4xx_hal_dac.c ****   * @retval None
1067:Drivers/STM32L4xx_HAL_Driver/Src/stm32l4xx_hal_dac.c ****   */
1068:Drivers/STM32L4xx_HAL_Driver/Src/stm32l4xx_hal_dac.c **** __weak void HAL_DAC_ConvCpltCallbackCh1(DAC_HandleTypeDef *hdac)
1069:Drivers/STM32L4xx_HAL_Driver/Src/stm32l4xx_hal_dac.c **** {
 659              		.loc 1 1069 0
 660              		.cfi_startproc
 661              		@ args = 0, pretend = 0, frame = 0
 662              		@ frame_needed = 0, uses_anonymous_args = 0
 663              		@ link register save eliminated.
 664              	.LVL59:
 665 0000 7047     		bx	lr
 666              		.cfi_endproc
 667              	.LFE298:
 669 0002 00BF     		.section	.text.DAC_DMAConvCpltCh1,"ax",%progbits
 670              		.align	2
 671              		.global	DAC_DMAConvCpltCh1
 672              		.thumb
 673              		.thumb_func
 675              	DAC_DMAConvCpltCh1:
 676              	.LFB306:
1070:Drivers/STM32L4xx_HAL_Driver/Src/stm32l4xx_hal_dac.c ****   /* Prevent unused argument(s) compilation warning */
1071:Drivers/STM32L4xx_HAL_Driver/Src/stm32l4xx_hal_dac.c ****   UNUSED(hdac);
1072:Drivers/STM32L4xx_HAL_Driver/Src/stm32l4xx_hal_dac.c **** 
1073:Drivers/STM32L4xx_HAL_Driver/Src/stm32l4xx_hal_dac.c ****   /* NOTE : This function should not be modified, when the callback is needed,
1074:Drivers/STM32L4xx_HAL_Driver/Src/stm32l4xx_hal_dac.c ****             the HAL_DAC_ConvCpltCallbackCh1 could be implemented in the user file
1075:Drivers/STM32L4xx_HAL_Driver/Src/stm32l4xx_hal_dac.c ****    */
1076:Drivers/STM32L4xx_HAL_Driver/Src/stm32l4xx_hal_dac.c **** }
1077:Drivers/STM32L4xx_HAL_Driver/Src/stm32l4xx_hal_dac.c **** 
1078:Drivers/STM32L4xx_HAL_Driver/Src/stm32l4xx_hal_dac.c **** /**
1079:Drivers/STM32L4xx_HAL_Driver/Src/stm32l4xx_hal_dac.c ****   * @brief  Conversion half DMA transfer callback in non-blocking mode for Channel1
1080:Drivers/STM32L4xx_HAL_Driver/Src/stm32l4xx_hal_dac.c ****   * @param  hdac pointer to a DAC_HandleTypeDef structure that contains
1081:Drivers/STM32L4xx_HAL_Driver/Src/stm32l4xx_hal_dac.c ****   *         the configuration information for the specified DAC.
1082:Drivers/STM32L4xx_HAL_Driver/Src/stm32l4xx_hal_dac.c ****   * @retval None
1083:Drivers/STM32L4xx_HAL_Driver/Src/stm32l4xx_hal_dac.c ****   */
1084:Drivers/STM32L4xx_HAL_Driver/Src/stm32l4xx_hal_dac.c **** __weak void HAL_DAC_ConvHalfCpltCallbackCh1(DAC_HandleTypeDef *hdac)
1085:Drivers/STM32L4xx_HAL_Driver/Src/stm32l4xx_hal_dac.c **** {
1086:Drivers/STM32L4xx_HAL_Driver/Src/stm32l4xx_hal_dac.c ****   /* Prevent unused argument(s) compilation warning */
1087:Drivers/STM32L4xx_HAL_Driver/Src/stm32l4xx_hal_dac.c ****   UNUSED(hdac);
ARM GAS  /tmp/ccNKo9M1.s 			page 32


1088:Drivers/STM32L4xx_HAL_Driver/Src/stm32l4xx_hal_dac.c **** 
1089:Drivers/STM32L4xx_HAL_Driver/Src/stm32l4xx_hal_dac.c ****   /* NOTE : This function should not be modified, when the callback is needed,
1090:Drivers/STM32L4xx_HAL_Driver/Src/stm32l4xx_hal_dac.c ****             the HAL_DAC_ConvHalfCpltCallbackCh1 could be implemented in the user file
1091:Drivers/STM32L4xx_HAL_Driver/Src/stm32l4xx_hal_dac.c ****    */
1092:Drivers/STM32L4xx_HAL_Driver/Src/stm32l4xx_hal_dac.c **** }
1093:Drivers/STM32L4xx_HAL_Driver/Src/stm32l4xx_hal_dac.c **** 
1094:Drivers/STM32L4xx_HAL_Driver/Src/stm32l4xx_hal_dac.c **** /**
1095:Drivers/STM32L4xx_HAL_Driver/Src/stm32l4xx_hal_dac.c ****   * @brief  Error DAC callback for Channel1.
1096:Drivers/STM32L4xx_HAL_Driver/Src/stm32l4xx_hal_dac.c ****   * @param  hdac pointer to a DAC_HandleTypeDef structure that contains
1097:Drivers/STM32L4xx_HAL_Driver/Src/stm32l4xx_hal_dac.c ****   *         the configuration information for the specified DAC.
1098:Drivers/STM32L4xx_HAL_Driver/Src/stm32l4xx_hal_dac.c ****   * @retval None
1099:Drivers/STM32L4xx_HAL_Driver/Src/stm32l4xx_hal_dac.c ****   */
1100:Drivers/STM32L4xx_HAL_Driver/Src/stm32l4xx_hal_dac.c **** __weak void HAL_DAC_ErrorCallbackCh1(DAC_HandleTypeDef *hdac)
1101:Drivers/STM32L4xx_HAL_Driver/Src/stm32l4xx_hal_dac.c **** {
1102:Drivers/STM32L4xx_HAL_Driver/Src/stm32l4xx_hal_dac.c ****   /* Prevent unused argument(s) compilation warning */
1103:Drivers/STM32L4xx_HAL_Driver/Src/stm32l4xx_hal_dac.c ****   UNUSED(hdac);
1104:Drivers/STM32L4xx_HAL_Driver/Src/stm32l4xx_hal_dac.c **** 
1105:Drivers/STM32L4xx_HAL_Driver/Src/stm32l4xx_hal_dac.c ****   /* NOTE : This function should not be modified, when the callback is needed,
1106:Drivers/STM32L4xx_HAL_Driver/Src/stm32l4xx_hal_dac.c ****             the HAL_DAC_ErrorCallbackCh1 could be implemented in the user file
1107:Drivers/STM32L4xx_HAL_Driver/Src/stm32l4xx_hal_dac.c ****    */
1108:Drivers/STM32L4xx_HAL_Driver/Src/stm32l4xx_hal_dac.c **** }
1109:Drivers/STM32L4xx_HAL_Driver/Src/stm32l4xx_hal_dac.c **** 
1110:Drivers/STM32L4xx_HAL_Driver/Src/stm32l4xx_hal_dac.c **** /**
1111:Drivers/STM32L4xx_HAL_Driver/Src/stm32l4xx_hal_dac.c ****   * @brief  DMA underrun DAC callback for channel1.
1112:Drivers/STM32L4xx_HAL_Driver/Src/stm32l4xx_hal_dac.c ****   * @param  hdac pointer to a DAC_HandleTypeDef structure that contains
1113:Drivers/STM32L4xx_HAL_Driver/Src/stm32l4xx_hal_dac.c ****   *         the configuration information for the specified DAC.
1114:Drivers/STM32L4xx_HAL_Driver/Src/stm32l4xx_hal_dac.c ****   * @retval None
1115:Drivers/STM32L4xx_HAL_Driver/Src/stm32l4xx_hal_dac.c ****   */
1116:Drivers/STM32L4xx_HAL_Driver/Src/stm32l4xx_hal_dac.c **** __weak void HAL_DAC_DMAUnderrunCallbackCh1(DAC_HandleTypeDef *hdac)
1117:Drivers/STM32L4xx_HAL_Driver/Src/stm32l4xx_hal_dac.c **** {
1118:Drivers/STM32L4xx_HAL_Driver/Src/stm32l4xx_hal_dac.c ****   /* Prevent unused argument(s) compilation warning */
1119:Drivers/STM32L4xx_HAL_Driver/Src/stm32l4xx_hal_dac.c ****   UNUSED(hdac);
1120:Drivers/STM32L4xx_HAL_Driver/Src/stm32l4xx_hal_dac.c **** 
1121:Drivers/STM32L4xx_HAL_Driver/Src/stm32l4xx_hal_dac.c ****   /* NOTE : This function should not be modified, when the callback is needed,
1122:Drivers/STM32L4xx_HAL_Driver/Src/stm32l4xx_hal_dac.c ****             the HAL_DAC_DMAUnderrunCallbackCh1 could be implemented in the user file
1123:Drivers/STM32L4xx_HAL_Driver/Src/stm32l4xx_hal_dac.c ****    */
1124:Drivers/STM32L4xx_HAL_Driver/Src/stm32l4xx_hal_dac.c **** }
1125:Drivers/STM32L4xx_HAL_Driver/Src/stm32l4xx_hal_dac.c **** 
1126:Drivers/STM32L4xx_HAL_Driver/Src/stm32l4xx_hal_dac.c **** /**
1127:Drivers/STM32L4xx_HAL_Driver/Src/stm32l4xx_hal_dac.c ****   * @}
1128:Drivers/STM32L4xx_HAL_Driver/Src/stm32l4xx_hal_dac.c ****   */
1129:Drivers/STM32L4xx_HAL_Driver/Src/stm32l4xx_hal_dac.c **** 
1130:Drivers/STM32L4xx_HAL_Driver/Src/stm32l4xx_hal_dac.c **** /** @defgroup DAC_Exported_Functions_Group3 Peripheral Control functions
1131:Drivers/STM32L4xx_HAL_Driver/Src/stm32l4xx_hal_dac.c ****  *  @brief    Peripheral Control functions
1132:Drivers/STM32L4xx_HAL_Driver/Src/stm32l4xx_hal_dac.c ****  *
1133:Drivers/STM32L4xx_HAL_Driver/Src/stm32l4xx_hal_dac.c **** @verbatim
1134:Drivers/STM32L4xx_HAL_Driver/Src/stm32l4xx_hal_dac.c ****   ==============================================================================
1135:Drivers/STM32L4xx_HAL_Driver/Src/stm32l4xx_hal_dac.c ****              ##### Peripheral Control functions #####
1136:Drivers/STM32L4xx_HAL_Driver/Src/stm32l4xx_hal_dac.c ****   ==============================================================================
1137:Drivers/STM32L4xx_HAL_Driver/Src/stm32l4xx_hal_dac.c ****     [..]  This section provides functions allowing to:
1138:Drivers/STM32L4xx_HAL_Driver/Src/stm32l4xx_hal_dac.c ****       (+) Configure channels.
1139:Drivers/STM32L4xx_HAL_Driver/Src/stm32l4xx_hal_dac.c ****       (+) Set the specified data holding register value for DAC channel.
1140:Drivers/STM32L4xx_HAL_Driver/Src/stm32l4xx_hal_dac.c **** 
1141:Drivers/STM32L4xx_HAL_Driver/Src/stm32l4xx_hal_dac.c **** @endverbatim
1142:Drivers/STM32L4xx_HAL_Driver/Src/stm32l4xx_hal_dac.c ****   * @{
1143:Drivers/STM32L4xx_HAL_Driver/Src/stm32l4xx_hal_dac.c ****   */
1144:Drivers/STM32L4xx_HAL_Driver/Src/stm32l4xx_hal_dac.c **** 
ARM GAS  /tmp/ccNKo9M1.s 			page 33


1145:Drivers/STM32L4xx_HAL_Driver/Src/stm32l4xx_hal_dac.c **** /**
1146:Drivers/STM32L4xx_HAL_Driver/Src/stm32l4xx_hal_dac.c ****   * @brief  Returns the last data output value of the selected DAC channel.
1147:Drivers/STM32L4xx_HAL_Driver/Src/stm32l4xx_hal_dac.c ****   * @param  hdac pointer to a DAC_HandleTypeDef structure that contains
1148:Drivers/STM32L4xx_HAL_Driver/Src/stm32l4xx_hal_dac.c ****   *         the configuration information for the specified DAC.
1149:Drivers/STM32L4xx_HAL_Driver/Src/stm32l4xx_hal_dac.c ****   * @param  Channel The selected DAC channel.
1150:Drivers/STM32L4xx_HAL_Driver/Src/stm32l4xx_hal_dac.c ****   *          This parameter can be one of the following values:
1151:Drivers/STM32L4xx_HAL_Driver/Src/stm32l4xx_hal_dac.c ****   *            @arg DAC_CHANNEL_1: DAC Channel1 selected
1152:Drivers/STM32L4xx_HAL_Driver/Src/stm32l4xx_hal_dac.c ****   *            @arg DAC_CHANNEL_2: DAC Channel2 selected
1153:Drivers/STM32L4xx_HAL_Driver/Src/stm32l4xx_hal_dac.c ****   * @retval The selected DAC channel data output value.
1154:Drivers/STM32L4xx_HAL_Driver/Src/stm32l4xx_hal_dac.c ****   */
1155:Drivers/STM32L4xx_HAL_Driver/Src/stm32l4xx_hal_dac.c **** uint32_t HAL_DAC_GetValue(DAC_HandleTypeDef *hdac, uint32_t Channel)
1156:Drivers/STM32L4xx_HAL_Driver/Src/stm32l4xx_hal_dac.c **** {
1157:Drivers/STM32L4xx_HAL_Driver/Src/stm32l4xx_hal_dac.c ****   /* Check the parameters */
1158:Drivers/STM32L4xx_HAL_Driver/Src/stm32l4xx_hal_dac.c ****   assert_param(IS_DAC_CHANNEL(Channel));
1159:Drivers/STM32L4xx_HAL_Driver/Src/stm32l4xx_hal_dac.c **** 
1160:Drivers/STM32L4xx_HAL_Driver/Src/stm32l4xx_hal_dac.c ****   /* Returns the DAC channel data output register value */
1161:Drivers/STM32L4xx_HAL_Driver/Src/stm32l4xx_hal_dac.c **** #if defined (STM32L451xx) || defined (STM32L452xx) || defined (STM32L462xx)
1162:Drivers/STM32L4xx_HAL_Driver/Src/stm32l4xx_hal_dac.c ****   /* Prevent unused argument(s) compilation warning if no assert_param check */
1163:Drivers/STM32L4xx_HAL_Driver/Src/stm32l4xx_hal_dac.c ****   UNUSED(Channel);
1164:Drivers/STM32L4xx_HAL_Driver/Src/stm32l4xx_hal_dac.c **** 
1165:Drivers/STM32L4xx_HAL_Driver/Src/stm32l4xx_hal_dac.c ****   return hdac->Instance->DOR1;
1166:Drivers/STM32L4xx_HAL_Driver/Src/stm32l4xx_hal_dac.c **** #endif /* STM32L451xx STM32L452xx STM32L462xx */
1167:Drivers/STM32L4xx_HAL_Driver/Src/stm32l4xx_hal_dac.c **** 
1168:Drivers/STM32L4xx_HAL_Driver/Src/stm32l4xx_hal_dac.c **** #if defined (STM32L431xx) || defined (STM32L432xx) || defined (STM32L433xx) || defined (STM32L442xx
1169:Drivers/STM32L4xx_HAL_Driver/Src/stm32l4xx_hal_dac.c ****     defined (STM32L471xx) || defined (STM32L475xx) || defined (STM32L476xx) || defined (STM32L485xx
1170:Drivers/STM32L4xx_HAL_Driver/Src/stm32l4xx_hal_dac.c ****     defined (STM32L4P5xx) || defined (STM32L4Q5xx) || \
1171:Drivers/STM32L4xx_HAL_Driver/Src/stm32l4xx_hal_dac.c ****     defined (STM32L4R5xx) || defined (STM32L4R7xx) || defined (STM32L4R9xx) || defined (STM32L4S5xx
1172:Drivers/STM32L4xx_HAL_Driver/Src/stm32l4xx_hal_dac.c ****   if(Channel == DAC_CHANNEL_1)
1173:Drivers/STM32L4xx_HAL_Driver/Src/stm32l4xx_hal_dac.c ****   {
1174:Drivers/STM32L4xx_HAL_Driver/Src/stm32l4xx_hal_dac.c ****     return hdac->Instance->DOR1;
1175:Drivers/STM32L4xx_HAL_Driver/Src/stm32l4xx_hal_dac.c ****   }
1176:Drivers/STM32L4xx_HAL_Driver/Src/stm32l4xx_hal_dac.c ****   else
1177:Drivers/STM32L4xx_HAL_Driver/Src/stm32l4xx_hal_dac.c ****   {
1178:Drivers/STM32L4xx_HAL_Driver/Src/stm32l4xx_hal_dac.c ****     return hdac->Instance->DOR2;
1179:Drivers/STM32L4xx_HAL_Driver/Src/stm32l4xx_hal_dac.c ****   }
1180:Drivers/STM32L4xx_HAL_Driver/Src/stm32l4xx_hal_dac.c **** #endif  /* STM32L431xx STM32L432xx STM32L433xx STM32L442xx STM32L443xx                         */
1181:Drivers/STM32L4xx_HAL_Driver/Src/stm32l4xx_hal_dac.c ****         /* STM32L471xx STM32L475xx STM32L476xx STM32L485xx STM32L486xx STM32L496xx STM32L4A6xx */
1182:Drivers/STM32L4xx_HAL_Driver/Src/stm32l4xx_hal_dac.c ****         /* STM32L4P5xx STM32L4Q5xx                                                             */
1183:Drivers/STM32L4xx_HAL_Driver/Src/stm32l4xx_hal_dac.c ****         /* STM32L4R5xx STM32L4R7xx STM32L4R9xx STM32L4S5xx STM32L4S7xx STM32L4S9xx             */
1184:Drivers/STM32L4xx_HAL_Driver/Src/stm32l4xx_hal_dac.c **** }
1185:Drivers/STM32L4xx_HAL_Driver/Src/stm32l4xx_hal_dac.c **** 
1186:Drivers/STM32L4xx_HAL_Driver/Src/stm32l4xx_hal_dac.c **** /**
1187:Drivers/STM32L4xx_HAL_Driver/Src/stm32l4xx_hal_dac.c ****   * @brief  Configures the selected DAC channel.
1188:Drivers/STM32L4xx_HAL_Driver/Src/stm32l4xx_hal_dac.c ****   * @note   By calling this function, the high frequency interface mode (HFSEL bits)
1189:Drivers/STM32L4xx_HAL_Driver/Src/stm32l4xx_hal_dac.c ****   *         will be set. This parameter scope is the DAC instance. As the function
1190:Drivers/STM32L4xx_HAL_Driver/Src/stm32l4xx_hal_dac.c ****   *         is called for each channel, the @ref DAC_HighFrequency of @arg sConfig
1191:Drivers/STM32L4xx_HAL_Driver/Src/stm32l4xx_hal_dac.c ****   *         must be the same at each call.
1192:Drivers/STM32L4xx_HAL_Driver/Src/stm32l4xx_hal_dac.c ****   *         (or DAC_HIGH_FREQUENCY_INTERFACE_MODE_AUTOMATIC self detect).
1193:Drivers/STM32L4xx_HAL_Driver/Src/stm32l4xx_hal_dac.c ****   * @param  hdac pointer to a DAC_HandleTypeDef structure that contains
1194:Drivers/STM32L4xx_HAL_Driver/Src/stm32l4xx_hal_dac.c ****   *         the configuration information for the specified DAC.
1195:Drivers/STM32L4xx_HAL_Driver/Src/stm32l4xx_hal_dac.c ****   * @param  sConfig DAC configuration structure.
1196:Drivers/STM32L4xx_HAL_Driver/Src/stm32l4xx_hal_dac.c ****   * @param  Channel The selected DAC channel.
1197:Drivers/STM32L4xx_HAL_Driver/Src/stm32l4xx_hal_dac.c ****   *          This parameter can be one of the following values:
1198:Drivers/STM32L4xx_HAL_Driver/Src/stm32l4xx_hal_dac.c ****   *            @arg DAC_CHANNEL_1: DAC Channel1 selected
1199:Drivers/STM32L4xx_HAL_Driver/Src/stm32l4xx_hal_dac.c ****   *            @arg DAC_CHANNEL_2: DAC Channel2 selected (Whenever present)
1200:Drivers/STM32L4xx_HAL_Driver/Src/stm32l4xx_hal_dac.c ****   * @retval HAL status
1201:Drivers/STM32L4xx_HAL_Driver/Src/stm32l4xx_hal_dac.c ****   */
ARM GAS  /tmp/ccNKo9M1.s 			page 34


1202:Drivers/STM32L4xx_HAL_Driver/Src/stm32l4xx_hal_dac.c **** HAL_StatusTypeDef HAL_DAC_ConfigChannel(DAC_HandleTypeDef *hdac, DAC_ChannelConfTypeDef *sConfig, u
1203:Drivers/STM32L4xx_HAL_Driver/Src/stm32l4xx_hal_dac.c **** {
1204:Drivers/STM32L4xx_HAL_Driver/Src/stm32l4xx_hal_dac.c ****   uint32_t tmpreg1;
1205:Drivers/STM32L4xx_HAL_Driver/Src/stm32l4xx_hal_dac.c ****   uint32_t tmpreg2;
1206:Drivers/STM32L4xx_HAL_Driver/Src/stm32l4xx_hal_dac.c ****   uint32_t tickstart = 0U;
1207:Drivers/STM32L4xx_HAL_Driver/Src/stm32l4xx_hal_dac.c **** #if defined (STM32L4P5xx) || defined (STM32L4Q5xx) || defined (STM32L4R5xx) || defined (STM32L4R7xx
1208:Drivers/STM32L4xx_HAL_Driver/Src/stm32l4xx_hal_dac.c ****   uint32_t hclkfreq;
1209:Drivers/STM32L4xx_HAL_Driver/Src/stm32l4xx_hal_dac.c **** #endif /* STM32L4P5xx STM32L4Q5xx STM32L4R5xx STM32L4R7xx STM32L4R9xx STM32L4S5xx STM32L4S7xx STM32
1210:Drivers/STM32L4xx_HAL_Driver/Src/stm32l4xx_hal_dac.c **** 
1211:Drivers/STM32L4xx_HAL_Driver/Src/stm32l4xx_hal_dac.c ****   /* Check the DAC parameters */
1212:Drivers/STM32L4xx_HAL_Driver/Src/stm32l4xx_hal_dac.c **** #if defined (STM32L4P5xx) || defined (STM32L4Q5xx) || defined (STM32L4R5xx) || defined (STM32L4R7xx
1213:Drivers/STM32L4xx_HAL_Driver/Src/stm32l4xx_hal_dac.c ****   assert_param(IS_DAC_HIGH_FREQUENCY_MODE(sConfig->DAC_HighFrequency));
1214:Drivers/STM32L4xx_HAL_Driver/Src/stm32l4xx_hal_dac.c **** #endif /* STM32L4P5xx STM32L4Q5xx STM32L4R5xx STM32L4R7xx STM32L4R9xx STM32L4S5xx STM32L4S7xx STM32
1215:Drivers/STM32L4xx_HAL_Driver/Src/stm32l4xx_hal_dac.c ****   assert_param(IS_DAC_TRIGGER(sConfig->DAC_Trigger));
1216:Drivers/STM32L4xx_HAL_Driver/Src/stm32l4xx_hal_dac.c ****   assert_param(IS_DAC_OUTPUT_BUFFER_STATE(sConfig->DAC_OutputBuffer));
1217:Drivers/STM32L4xx_HAL_Driver/Src/stm32l4xx_hal_dac.c ****   assert_param(IS_DAC_CHIP_CONNECTION(sConfig->DAC_ConnectOnChipPeripheral));
1218:Drivers/STM32L4xx_HAL_Driver/Src/stm32l4xx_hal_dac.c ****   assert_param(IS_DAC_TRIMMING(sConfig->DAC_UserTrimming));
1219:Drivers/STM32L4xx_HAL_Driver/Src/stm32l4xx_hal_dac.c ****   if ((sConfig->DAC_UserTrimming) == DAC_TRIMMING_USER)
1220:Drivers/STM32L4xx_HAL_Driver/Src/stm32l4xx_hal_dac.c ****   {
1221:Drivers/STM32L4xx_HAL_Driver/Src/stm32l4xx_hal_dac.c ****     assert_param(IS_DAC_TRIMMINGVALUE(sConfig->DAC_TrimmingValue));
1222:Drivers/STM32L4xx_HAL_Driver/Src/stm32l4xx_hal_dac.c ****   }
1223:Drivers/STM32L4xx_HAL_Driver/Src/stm32l4xx_hal_dac.c ****   assert_param(IS_DAC_SAMPLEANDHOLD(sConfig->DAC_SampleAndHold));
1224:Drivers/STM32L4xx_HAL_Driver/Src/stm32l4xx_hal_dac.c ****   if ((sConfig->DAC_SampleAndHold) == DAC_SAMPLEANDHOLD_ENABLE)
1225:Drivers/STM32L4xx_HAL_Driver/Src/stm32l4xx_hal_dac.c ****   {
1226:Drivers/STM32L4xx_HAL_Driver/Src/stm32l4xx_hal_dac.c ****     assert_param(IS_DAC_SAMPLETIME(sConfig->DAC_SampleAndHoldConfig.DAC_SampleTime));
1227:Drivers/STM32L4xx_HAL_Driver/Src/stm32l4xx_hal_dac.c ****     assert_param(IS_DAC_HOLDTIME(sConfig->DAC_SampleAndHoldConfig.DAC_HoldTime));
1228:Drivers/STM32L4xx_HAL_Driver/Src/stm32l4xx_hal_dac.c ****     assert_param(IS_DAC_REFRESHTIME(sConfig->DAC_SampleAndHoldConfig.DAC_RefreshTime));
1229:Drivers/STM32L4xx_HAL_Driver/Src/stm32l4xx_hal_dac.c ****   }
1230:Drivers/STM32L4xx_HAL_Driver/Src/stm32l4xx_hal_dac.c ****   assert_param(IS_DAC_CHANNEL(Channel));
1231:Drivers/STM32L4xx_HAL_Driver/Src/stm32l4xx_hal_dac.c **** 
1232:Drivers/STM32L4xx_HAL_Driver/Src/stm32l4xx_hal_dac.c ****   /* Process locked */
1233:Drivers/STM32L4xx_HAL_Driver/Src/stm32l4xx_hal_dac.c ****   __HAL_LOCK(hdac);
1234:Drivers/STM32L4xx_HAL_Driver/Src/stm32l4xx_hal_dac.c **** 
1235:Drivers/STM32L4xx_HAL_Driver/Src/stm32l4xx_hal_dac.c ****   /* Change DAC state */
1236:Drivers/STM32L4xx_HAL_Driver/Src/stm32l4xx_hal_dac.c ****   hdac->State = HAL_DAC_STATE_BUSY;
1237:Drivers/STM32L4xx_HAL_Driver/Src/stm32l4xx_hal_dac.c **** 
1238:Drivers/STM32L4xx_HAL_Driver/Src/stm32l4xx_hal_dac.c ****   if (sConfig->DAC_SampleAndHold == DAC_SAMPLEANDHOLD_ENABLE)
1239:Drivers/STM32L4xx_HAL_Driver/Src/stm32l4xx_hal_dac.c ****   /* Sample on old configuration */
1240:Drivers/STM32L4xx_HAL_Driver/Src/stm32l4xx_hal_dac.c ****   {
1241:Drivers/STM32L4xx_HAL_Driver/Src/stm32l4xx_hal_dac.c ****     /* Get timeout */
1242:Drivers/STM32L4xx_HAL_Driver/Src/stm32l4xx_hal_dac.c ****     tickstart = HAL_GetTick();
1243:Drivers/STM32L4xx_HAL_Driver/Src/stm32l4xx_hal_dac.c **** 
1244:Drivers/STM32L4xx_HAL_Driver/Src/stm32l4xx_hal_dac.c ****     if (Channel == DAC_CHANNEL_1)
1245:Drivers/STM32L4xx_HAL_Driver/Src/stm32l4xx_hal_dac.c ****     {
1246:Drivers/STM32L4xx_HAL_Driver/Src/stm32l4xx_hal_dac.c **** 
1247:Drivers/STM32L4xx_HAL_Driver/Src/stm32l4xx_hal_dac.c ****       /* SHSR1 can be written when BWST1 is cleared */
1248:Drivers/STM32L4xx_HAL_Driver/Src/stm32l4xx_hal_dac.c ****       while (((hdac->Instance->SR) & DAC_SR_BWST1) != 0UL)
1249:Drivers/STM32L4xx_HAL_Driver/Src/stm32l4xx_hal_dac.c ****       {
1250:Drivers/STM32L4xx_HAL_Driver/Src/stm32l4xx_hal_dac.c ****         /* Check for the Timeout */
1251:Drivers/STM32L4xx_HAL_Driver/Src/stm32l4xx_hal_dac.c ****         if ((HAL_GetTick() - tickstart) > TIMEOUT_DAC_CALIBCONFIG)
1252:Drivers/STM32L4xx_HAL_Driver/Src/stm32l4xx_hal_dac.c ****         {
1253:Drivers/STM32L4xx_HAL_Driver/Src/stm32l4xx_hal_dac.c ****           /* Update error code */
1254:Drivers/STM32L4xx_HAL_Driver/Src/stm32l4xx_hal_dac.c ****           SET_BIT(hdac->ErrorCode, HAL_DAC_ERROR_TIMEOUT);
1255:Drivers/STM32L4xx_HAL_Driver/Src/stm32l4xx_hal_dac.c **** 
1256:Drivers/STM32L4xx_HAL_Driver/Src/stm32l4xx_hal_dac.c ****           /* Change the DMA state */
1257:Drivers/STM32L4xx_HAL_Driver/Src/stm32l4xx_hal_dac.c ****           hdac->State = HAL_DAC_STATE_TIMEOUT;
1258:Drivers/STM32L4xx_HAL_Driver/Src/stm32l4xx_hal_dac.c **** 
ARM GAS  /tmp/ccNKo9M1.s 			page 35


1259:Drivers/STM32L4xx_HAL_Driver/Src/stm32l4xx_hal_dac.c ****           return HAL_TIMEOUT;
1260:Drivers/STM32L4xx_HAL_Driver/Src/stm32l4xx_hal_dac.c ****         }
1261:Drivers/STM32L4xx_HAL_Driver/Src/stm32l4xx_hal_dac.c ****       }
1262:Drivers/STM32L4xx_HAL_Driver/Src/stm32l4xx_hal_dac.c ****       HAL_Delay(1);
1263:Drivers/STM32L4xx_HAL_Driver/Src/stm32l4xx_hal_dac.c ****       hdac->Instance->SHSR1 = sConfig->DAC_SampleAndHoldConfig.DAC_SampleTime;
1264:Drivers/STM32L4xx_HAL_Driver/Src/stm32l4xx_hal_dac.c ****     }
1265:Drivers/STM32L4xx_HAL_Driver/Src/stm32l4xx_hal_dac.c **** #if !defined (STM32L451xx) & !defined (STM32L452xx) & !defined (STM32L462xx)
1266:Drivers/STM32L4xx_HAL_Driver/Src/stm32l4xx_hal_dac.c ****     else /* Channel 2 */
1267:Drivers/STM32L4xx_HAL_Driver/Src/stm32l4xx_hal_dac.c ****     {
1268:Drivers/STM32L4xx_HAL_Driver/Src/stm32l4xx_hal_dac.c ****       /* SHSR2 can be written when BWST2 is cleared */
1269:Drivers/STM32L4xx_HAL_Driver/Src/stm32l4xx_hal_dac.c **** 
1270:Drivers/STM32L4xx_HAL_Driver/Src/stm32l4xx_hal_dac.c ****       while (((hdac->Instance->SR) & DAC_SR_BWST2) != 0UL)
1271:Drivers/STM32L4xx_HAL_Driver/Src/stm32l4xx_hal_dac.c ****       {
1272:Drivers/STM32L4xx_HAL_Driver/Src/stm32l4xx_hal_dac.c ****         /* Check for the Timeout */
1273:Drivers/STM32L4xx_HAL_Driver/Src/stm32l4xx_hal_dac.c ****         if ((HAL_GetTick() - tickstart) > TIMEOUT_DAC_CALIBCONFIG)
1274:Drivers/STM32L4xx_HAL_Driver/Src/stm32l4xx_hal_dac.c ****         {
1275:Drivers/STM32L4xx_HAL_Driver/Src/stm32l4xx_hal_dac.c ****           /* Update error code */
1276:Drivers/STM32L4xx_HAL_Driver/Src/stm32l4xx_hal_dac.c ****           SET_BIT(hdac->ErrorCode, HAL_DAC_ERROR_TIMEOUT);
1277:Drivers/STM32L4xx_HAL_Driver/Src/stm32l4xx_hal_dac.c **** 
1278:Drivers/STM32L4xx_HAL_Driver/Src/stm32l4xx_hal_dac.c ****           /* Change the DMA state */
1279:Drivers/STM32L4xx_HAL_Driver/Src/stm32l4xx_hal_dac.c ****           hdac->State = HAL_DAC_STATE_TIMEOUT;
1280:Drivers/STM32L4xx_HAL_Driver/Src/stm32l4xx_hal_dac.c **** 
1281:Drivers/STM32L4xx_HAL_Driver/Src/stm32l4xx_hal_dac.c ****           return HAL_TIMEOUT;
1282:Drivers/STM32L4xx_HAL_Driver/Src/stm32l4xx_hal_dac.c ****         }
1283:Drivers/STM32L4xx_HAL_Driver/Src/stm32l4xx_hal_dac.c ****       }
1284:Drivers/STM32L4xx_HAL_Driver/Src/stm32l4xx_hal_dac.c ****       HAL_Delay(1U);
1285:Drivers/STM32L4xx_HAL_Driver/Src/stm32l4xx_hal_dac.c ****       hdac->Instance->SHSR2 = sConfig->DAC_SampleAndHoldConfig.DAC_SampleTime;
1286:Drivers/STM32L4xx_HAL_Driver/Src/stm32l4xx_hal_dac.c ****     }
1287:Drivers/STM32L4xx_HAL_Driver/Src/stm32l4xx_hal_dac.c **** #endif /* STM32L451xx STM32L452xx STM32L462xx */
1288:Drivers/STM32L4xx_HAL_Driver/Src/stm32l4xx_hal_dac.c **** 
1289:Drivers/STM32L4xx_HAL_Driver/Src/stm32l4xx_hal_dac.c ****     /* HoldTime */
1290:Drivers/STM32L4xx_HAL_Driver/Src/stm32l4xx_hal_dac.c ****     MODIFY_REG(hdac->Instance->SHHR, DAC_SHHR_THOLD1 << (Channel & 0x10UL), (sConfig->DAC_SampleAnd
1291:Drivers/STM32L4xx_HAL_Driver/Src/stm32l4xx_hal_dac.c ****     /* RefreshTime */
1292:Drivers/STM32L4xx_HAL_Driver/Src/stm32l4xx_hal_dac.c ****     MODIFY_REG(hdac->Instance->SHRR, DAC_SHRR_TREFRESH1 << (Channel & 0x10UL), (sConfig->DAC_Sample
1293:Drivers/STM32L4xx_HAL_Driver/Src/stm32l4xx_hal_dac.c ****   }
1294:Drivers/STM32L4xx_HAL_Driver/Src/stm32l4xx_hal_dac.c **** 
1295:Drivers/STM32L4xx_HAL_Driver/Src/stm32l4xx_hal_dac.c ****   if (sConfig->DAC_UserTrimming == DAC_TRIMMING_USER)
1296:Drivers/STM32L4xx_HAL_Driver/Src/stm32l4xx_hal_dac.c ****   /* USER TRIMMING */
1297:Drivers/STM32L4xx_HAL_Driver/Src/stm32l4xx_hal_dac.c ****   {
1298:Drivers/STM32L4xx_HAL_Driver/Src/stm32l4xx_hal_dac.c ****     /* Get the DAC CCR value */
1299:Drivers/STM32L4xx_HAL_Driver/Src/stm32l4xx_hal_dac.c ****     tmpreg1 = hdac->Instance->CCR;
1300:Drivers/STM32L4xx_HAL_Driver/Src/stm32l4xx_hal_dac.c ****     /* Clear trimming value */
1301:Drivers/STM32L4xx_HAL_Driver/Src/stm32l4xx_hal_dac.c ****     tmpreg1 &= ~(((uint32_t)(DAC_CCR_OTRIM1)) << (Channel & 0x10UL));
1302:Drivers/STM32L4xx_HAL_Driver/Src/stm32l4xx_hal_dac.c ****     /* Configure for the selected trimming offset */
1303:Drivers/STM32L4xx_HAL_Driver/Src/stm32l4xx_hal_dac.c ****     tmpreg2 = sConfig->DAC_TrimmingValue;
1304:Drivers/STM32L4xx_HAL_Driver/Src/stm32l4xx_hal_dac.c ****     /* Calculate CCR register value depending on DAC_Channel */
1305:Drivers/STM32L4xx_HAL_Driver/Src/stm32l4xx_hal_dac.c ****     tmpreg1 |= tmpreg2 << (Channel & 0x10UL);
1306:Drivers/STM32L4xx_HAL_Driver/Src/stm32l4xx_hal_dac.c ****     /* Write to DAC CCR */
1307:Drivers/STM32L4xx_HAL_Driver/Src/stm32l4xx_hal_dac.c ****     hdac->Instance->CCR = tmpreg1;
1308:Drivers/STM32L4xx_HAL_Driver/Src/stm32l4xx_hal_dac.c ****   }
1309:Drivers/STM32L4xx_HAL_Driver/Src/stm32l4xx_hal_dac.c ****   /* else factory trimming is used (factory setting are available at reset)*/
1310:Drivers/STM32L4xx_HAL_Driver/Src/stm32l4xx_hal_dac.c ****   /* SW Nothing has nothing to do */
1311:Drivers/STM32L4xx_HAL_Driver/Src/stm32l4xx_hal_dac.c **** 
1312:Drivers/STM32L4xx_HAL_Driver/Src/stm32l4xx_hal_dac.c ****   /* Get the DAC MCR value */
1313:Drivers/STM32L4xx_HAL_Driver/Src/stm32l4xx_hal_dac.c ****   tmpreg1 = hdac->Instance->MCR;
1314:Drivers/STM32L4xx_HAL_Driver/Src/stm32l4xx_hal_dac.c ****   /* Clear DAC_MCR_MODEx bits */
1315:Drivers/STM32L4xx_HAL_Driver/Src/stm32l4xx_hal_dac.c ****   tmpreg1 &= ~(((uint32_t)(DAC_MCR_MODE1)) << (Channel & 0x10UL));
ARM GAS  /tmp/ccNKo9M1.s 			page 36


1316:Drivers/STM32L4xx_HAL_Driver/Src/stm32l4xx_hal_dac.c ****   /* Configure for the selected DAC channel: mode, buffer output & on chip peripheral connect */
1317:Drivers/STM32L4xx_HAL_Driver/Src/stm32l4xx_hal_dac.c ****   tmpreg2 = (sConfig->DAC_SampleAndHold | sConfig->DAC_OutputBuffer | sConfig->DAC_ConnectOnChipPer
1318:Drivers/STM32L4xx_HAL_Driver/Src/stm32l4xx_hal_dac.c ****   /* Calculate MCR register value depending on DAC_Channel */
1319:Drivers/STM32L4xx_HAL_Driver/Src/stm32l4xx_hal_dac.c ****   tmpreg1 |= tmpreg2 << (Channel & 0x10UL);
1320:Drivers/STM32L4xx_HAL_Driver/Src/stm32l4xx_hal_dac.c ****   /* Write to DAC MCR */
1321:Drivers/STM32L4xx_HAL_Driver/Src/stm32l4xx_hal_dac.c ****   hdac->Instance->MCR = tmpreg1;
1322:Drivers/STM32L4xx_HAL_Driver/Src/stm32l4xx_hal_dac.c **** 
1323:Drivers/STM32L4xx_HAL_Driver/Src/stm32l4xx_hal_dac.c ****   /* DAC in normal operating mode hence clear DAC_CR_CENx bit */
1324:Drivers/STM32L4xx_HAL_Driver/Src/stm32l4xx_hal_dac.c ****   CLEAR_BIT(hdac->Instance->CR, DAC_CR_CEN1 << (Channel & 0x10UL));
1325:Drivers/STM32L4xx_HAL_Driver/Src/stm32l4xx_hal_dac.c **** 
1326:Drivers/STM32L4xx_HAL_Driver/Src/stm32l4xx_hal_dac.c ****   /* Get the DAC CR value */
1327:Drivers/STM32L4xx_HAL_Driver/Src/stm32l4xx_hal_dac.c ****   tmpreg1 = hdac->Instance->CR;
1328:Drivers/STM32L4xx_HAL_Driver/Src/stm32l4xx_hal_dac.c ****   /* Clear TENx, TSELx, WAVEx and MAMPx bits */
1329:Drivers/STM32L4xx_HAL_Driver/Src/stm32l4xx_hal_dac.c ****   tmpreg1 &= ~(((uint32_t)(DAC_CR_MAMP1 | DAC_CR_WAVE1 | DAC_CR_TSEL1 | DAC_CR_TEN1)) << (Channel &
1330:Drivers/STM32L4xx_HAL_Driver/Src/stm32l4xx_hal_dac.c ****   /* Configure for the selected DAC channel: trigger */
1331:Drivers/STM32L4xx_HAL_Driver/Src/stm32l4xx_hal_dac.c ****   /* Set TSELx and TENx bits according to DAC_Trigger value */
1332:Drivers/STM32L4xx_HAL_Driver/Src/stm32l4xx_hal_dac.c ****   tmpreg2 = sConfig->DAC_Trigger;
1333:Drivers/STM32L4xx_HAL_Driver/Src/stm32l4xx_hal_dac.c ****   /* Calculate CR register value depending on DAC_Channel */
1334:Drivers/STM32L4xx_HAL_Driver/Src/stm32l4xx_hal_dac.c ****   tmpreg1 |= tmpreg2 << (Channel & 0x10UL);
1335:Drivers/STM32L4xx_HAL_Driver/Src/stm32l4xx_hal_dac.c **** #if defined (STM32L4P5xx) || defined (STM32L4Q5xx) || defined (STM32L4R5xx) || defined (STM32L4R7xx
1336:Drivers/STM32L4xx_HAL_Driver/Src/stm32l4xx_hal_dac.c ****   if (DAC_HIGH_FREQUENCY_INTERFACE_MODE_ABOVE_80MHZ == sConfig->DAC_HighFrequency)
1337:Drivers/STM32L4xx_HAL_Driver/Src/stm32l4xx_hal_dac.c ****   {
1338:Drivers/STM32L4xx_HAL_Driver/Src/stm32l4xx_hal_dac.c ****     tmpreg1 |= DAC_CR_HFSEL;
1339:Drivers/STM32L4xx_HAL_Driver/Src/stm32l4xx_hal_dac.c ****   }
1340:Drivers/STM32L4xx_HAL_Driver/Src/stm32l4xx_hal_dac.c ****   else
1341:Drivers/STM32L4xx_HAL_Driver/Src/stm32l4xx_hal_dac.c ****   {
1342:Drivers/STM32L4xx_HAL_Driver/Src/stm32l4xx_hal_dac.c ****     if (DAC_HIGH_FREQUENCY_INTERFACE_MODE_DISABLE == sConfig->DAC_HighFrequency)
1343:Drivers/STM32L4xx_HAL_Driver/Src/stm32l4xx_hal_dac.c ****     {
1344:Drivers/STM32L4xx_HAL_Driver/Src/stm32l4xx_hal_dac.c ****       tmpreg1 &= ~(DAC_CR_HFSEL);
1345:Drivers/STM32L4xx_HAL_Driver/Src/stm32l4xx_hal_dac.c ****     }
1346:Drivers/STM32L4xx_HAL_Driver/Src/stm32l4xx_hal_dac.c ****     else /* Automatic selection */
1347:Drivers/STM32L4xx_HAL_Driver/Src/stm32l4xx_hal_dac.c ****     {
1348:Drivers/STM32L4xx_HAL_Driver/Src/stm32l4xx_hal_dac.c ****       hclkfreq = HAL_RCC_GetHCLKFreq();
1349:Drivers/STM32L4xx_HAL_Driver/Src/stm32l4xx_hal_dac.c ****       if (hclkfreq > HFSEL_ENABLE_THRESHOLD_80MHZ)
1350:Drivers/STM32L4xx_HAL_Driver/Src/stm32l4xx_hal_dac.c ****       {
1351:Drivers/STM32L4xx_HAL_Driver/Src/stm32l4xx_hal_dac.c ****         /* High frequency enable when HCLK frequency higher than 80   */
1352:Drivers/STM32L4xx_HAL_Driver/Src/stm32l4xx_hal_dac.c ****          tmpreg1 |= DAC_CR_HFSEL;
1353:Drivers/STM32L4xx_HAL_Driver/Src/stm32l4xx_hal_dac.c ****       }
1354:Drivers/STM32L4xx_HAL_Driver/Src/stm32l4xx_hal_dac.c ****       else
1355:Drivers/STM32L4xx_HAL_Driver/Src/stm32l4xx_hal_dac.c ****       {
1356:Drivers/STM32L4xx_HAL_Driver/Src/stm32l4xx_hal_dac.c ****         /* High frequency disable when HCLK frequency higher than 80  */
1357:Drivers/STM32L4xx_HAL_Driver/Src/stm32l4xx_hal_dac.c ****         tmpreg1 &= ~(DAC_CR_HFSEL);
1358:Drivers/STM32L4xx_HAL_Driver/Src/stm32l4xx_hal_dac.c ****       }
1359:Drivers/STM32L4xx_HAL_Driver/Src/stm32l4xx_hal_dac.c ****     }
1360:Drivers/STM32L4xx_HAL_Driver/Src/stm32l4xx_hal_dac.c ****   }
1361:Drivers/STM32L4xx_HAL_Driver/Src/stm32l4xx_hal_dac.c **** 
1362:Drivers/STM32L4xx_HAL_Driver/Src/stm32l4xx_hal_dac.c **** #endif /* STM32L4P5xx STM32L4Q5xx STM32L4R5xx STM32L4R7xx STM32L4R9xx STM32L4S5xx STM32L4S7xx STM32
1363:Drivers/STM32L4xx_HAL_Driver/Src/stm32l4xx_hal_dac.c **** 
1364:Drivers/STM32L4xx_HAL_Driver/Src/stm32l4xx_hal_dac.c ****   /* Write to DAC CR */
1365:Drivers/STM32L4xx_HAL_Driver/Src/stm32l4xx_hal_dac.c ****   hdac->Instance->CR = tmpreg1;
1366:Drivers/STM32L4xx_HAL_Driver/Src/stm32l4xx_hal_dac.c ****   /* Disable wave generation */
1367:Drivers/STM32L4xx_HAL_Driver/Src/stm32l4xx_hal_dac.c ****   hdac->Instance->CR &= ~(DAC_CR_WAVE1 << (Channel & 0x10UL));
1368:Drivers/STM32L4xx_HAL_Driver/Src/stm32l4xx_hal_dac.c **** 
1369:Drivers/STM32L4xx_HAL_Driver/Src/stm32l4xx_hal_dac.c ****   /* Change DAC state */
1370:Drivers/STM32L4xx_HAL_Driver/Src/stm32l4xx_hal_dac.c ****   hdac->State = HAL_DAC_STATE_READY;
1371:Drivers/STM32L4xx_HAL_Driver/Src/stm32l4xx_hal_dac.c **** 
1372:Drivers/STM32L4xx_HAL_Driver/Src/stm32l4xx_hal_dac.c ****   /* Process unlocked */
ARM GAS  /tmp/ccNKo9M1.s 			page 37


1373:Drivers/STM32L4xx_HAL_Driver/Src/stm32l4xx_hal_dac.c ****   __HAL_UNLOCK(hdac);
1374:Drivers/STM32L4xx_HAL_Driver/Src/stm32l4xx_hal_dac.c **** 
1375:Drivers/STM32L4xx_HAL_Driver/Src/stm32l4xx_hal_dac.c ****   /* Return function status */
1376:Drivers/STM32L4xx_HAL_Driver/Src/stm32l4xx_hal_dac.c ****   return HAL_OK;
1377:Drivers/STM32L4xx_HAL_Driver/Src/stm32l4xx_hal_dac.c **** }
1378:Drivers/STM32L4xx_HAL_Driver/Src/stm32l4xx_hal_dac.c **** 
1379:Drivers/STM32L4xx_HAL_Driver/Src/stm32l4xx_hal_dac.c **** /**
1380:Drivers/STM32L4xx_HAL_Driver/Src/stm32l4xx_hal_dac.c ****   * @}
1381:Drivers/STM32L4xx_HAL_Driver/Src/stm32l4xx_hal_dac.c ****   */
1382:Drivers/STM32L4xx_HAL_Driver/Src/stm32l4xx_hal_dac.c **** 
1383:Drivers/STM32L4xx_HAL_Driver/Src/stm32l4xx_hal_dac.c **** /** @defgroup DAC_Exported_Functions_Group4 Peripheral State and Errors functions
1384:Drivers/STM32L4xx_HAL_Driver/Src/stm32l4xx_hal_dac.c ****  *  @brief   Peripheral State and Errors functions
1385:Drivers/STM32L4xx_HAL_Driver/Src/stm32l4xx_hal_dac.c ****  *
1386:Drivers/STM32L4xx_HAL_Driver/Src/stm32l4xx_hal_dac.c **** @verbatim
1387:Drivers/STM32L4xx_HAL_Driver/Src/stm32l4xx_hal_dac.c ****   ==============================================================================
1388:Drivers/STM32L4xx_HAL_Driver/Src/stm32l4xx_hal_dac.c ****             ##### Peripheral State and Errors functions #####
1389:Drivers/STM32L4xx_HAL_Driver/Src/stm32l4xx_hal_dac.c ****   ==============================================================================
1390:Drivers/STM32L4xx_HAL_Driver/Src/stm32l4xx_hal_dac.c ****     [..]
1391:Drivers/STM32L4xx_HAL_Driver/Src/stm32l4xx_hal_dac.c ****     This subsection provides functions allowing to
1392:Drivers/STM32L4xx_HAL_Driver/Src/stm32l4xx_hal_dac.c ****       (+) Check the DAC state.
1393:Drivers/STM32L4xx_HAL_Driver/Src/stm32l4xx_hal_dac.c ****       (+) Check the DAC Errors.
1394:Drivers/STM32L4xx_HAL_Driver/Src/stm32l4xx_hal_dac.c **** 
1395:Drivers/STM32L4xx_HAL_Driver/Src/stm32l4xx_hal_dac.c **** @endverbatim
1396:Drivers/STM32L4xx_HAL_Driver/Src/stm32l4xx_hal_dac.c ****   * @{
1397:Drivers/STM32L4xx_HAL_Driver/Src/stm32l4xx_hal_dac.c ****   */
1398:Drivers/STM32L4xx_HAL_Driver/Src/stm32l4xx_hal_dac.c **** 
1399:Drivers/STM32L4xx_HAL_Driver/Src/stm32l4xx_hal_dac.c **** /**
1400:Drivers/STM32L4xx_HAL_Driver/Src/stm32l4xx_hal_dac.c ****   * @brief  return the DAC handle state
1401:Drivers/STM32L4xx_HAL_Driver/Src/stm32l4xx_hal_dac.c ****   * @param  hdac pointer to a DAC_HandleTypeDef structure that contains
1402:Drivers/STM32L4xx_HAL_Driver/Src/stm32l4xx_hal_dac.c ****   *         the configuration information for the specified DAC.
1403:Drivers/STM32L4xx_HAL_Driver/Src/stm32l4xx_hal_dac.c ****   * @retval HAL state
1404:Drivers/STM32L4xx_HAL_Driver/Src/stm32l4xx_hal_dac.c ****   */
1405:Drivers/STM32L4xx_HAL_Driver/Src/stm32l4xx_hal_dac.c **** HAL_DAC_StateTypeDef HAL_DAC_GetState(DAC_HandleTypeDef *hdac)
1406:Drivers/STM32L4xx_HAL_Driver/Src/stm32l4xx_hal_dac.c **** {
1407:Drivers/STM32L4xx_HAL_Driver/Src/stm32l4xx_hal_dac.c ****   /* Return DAC handle state */
1408:Drivers/STM32L4xx_HAL_Driver/Src/stm32l4xx_hal_dac.c ****   return hdac->State;
1409:Drivers/STM32L4xx_HAL_Driver/Src/stm32l4xx_hal_dac.c **** }
1410:Drivers/STM32L4xx_HAL_Driver/Src/stm32l4xx_hal_dac.c **** 
1411:Drivers/STM32L4xx_HAL_Driver/Src/stm32l4xx_hal_dac.c **** 
1412:Drivers/STM32L4xx_HAL_Driver/Src/stm32l4xx_hal_dac.c **** /**
1413:Drivers/STM32L4xx_HAL_Driver/Src/stm32l4xx_hal_dac.c ****   * @brief  Return the DAC error code
1414:Drivers/STM32L4xx_HAL_Driver/Src/stm32l4xx_hal_dac.c ****   * @param  hdac pointer to a DAC_HandleTypeDef structure that contains
1415:Drivers/STM32L4xx_HAL_Driver/Src/stm32l4xx_hal_dac.c ****   *         the configuration information for the specified DAC.
1416:Drivers/STM32L4xx_HAL_Driver/Src/stm32l4xx_hal_dac.c ****   * @retval DAC Error Code
1417:Drivers/STM32L4xx_HAL_Driver/Src/stm32l4xx_hal_dac.c ****   */
1418:Drivers/STM32L4xx_HAL_Driver/Src/stm32l4xx_hal_dac.c **** uint32_t HAL_DAC_GetError(DAC_HandleTypeDef *hdac)
1419:Drivers/STM32L4xx_HAL_Driver/Src/stm32l4xx_hal_dac.c **** {
1420:Drivers/STM32L4xx_HAL_Driver/Src/stm32l4xx_hal_dac.c ****   return hdac->ErrorCode;
1421:Drivers/STM32L4xx_HAL_Driver/Src/stm32l4xx_hal_dac.c **** }
1422:Drivers/STM32L4xx_HAL_Driver/Src/stm32l4xx_hal_dac.c **** 
1423:Drivers/STM32L4xx_HAL_Driver/Src/stm32l4xx_hal_dac.c **** /**
1424:Drivers/STM32L4xx_HAL_Driver/Src/stm32l4xx_hal_dac.c ****   * @}
1425:Drivers/STM32L4xx_HAL_Driver/Src/stm32l4xx_hal_dac.c ****   */
1426:Drivers/STM32L4xx_HAL_Driver/Src/stm32l4xx_hal_dac.c **** 
1427:Drivers/STM32L4xx_HAL_Driver/Src/stm32l4xx_hal_dac.c **** /**
1428:Drivers/STM32L4xx_HAL_Driver/Src/stm32l4xx_hal_dac.c ****   * @}
1429:Drivers/STM32L4xx_HAL_Driver/Src/stm32l4xx_hal_dac.c ****   */
ARM GAS  /tmp/ccNKo9M1.s 			page 38


1430:Drivers/STM32L4xx_HAL_Driver/Src/stm32l4xx_hal_dac.c **** 
1431:Drivers/STM32L4xx_HAL_Driver/Src/stm32l4xx_hal_dac.c **** /** @addtogroup DAC_Exported_Functions
1432:Drivers/STM32L4xx_HAL_Driver/Src/stm32l4xx_hal_dac.c ****   * @{
1433:Drivers/STM32L4xx_HAL_Driver/Src/stm32l4xx_hal_dac.c ****   */
1434:Drivers/STM32L4xx_HAL_Driver/Src/stm32l4xx_hal_dac.c **** 
1435:Drivers/STM32L4xx_HAL_Driver/Src/stm32l4xx_hal_dac.c **** /** @addtogroup DAC_Exported_Functions_Group1
1436:Drivers/STM32L4xx_HAL_Driver/Src/stm32l4xx_hal_dac.c ****   * @{
1437:Drivers/STM32L4xx_HAL_Driver/Src/stm32l4xx_hal_dac.c ****   */
1438:Drivers/STM32L4xx_HAL_Driver/Src/stm32l4xx_hal_dac.c **** #if (USE_HAL_DAC_REGISTER_CALLBACKS == 1)
1439:Drivers/STM32L4xx_HAL_Driver/Src/stm32l4xx_hal_dac.c **** /**
1440:Drivers/STM32L4xx_HAL_Driver/Src/stm32l4xx_hal_dac.c ****   * @brief  Register a User DAC Callback
1441:Drivers/STM32L4xx_HAL_Driver/Src/stm32l4xx_hal_dac.c ****   *         To be used instead of the weak (surcharged) predefined callback
1442:Drivers/STM32L4xx_HAL_Driver/Src/stm32l4xx_hal_dac.c ****   * @param  hdac DAC handle
1443:Drivers/STM32L4xx_HAL_Driver/Src/stm32l4xx_hal_dac.c ****   * @param  CallbackID ID of the callback to be registered
1444:Drivers/STM32L4xx_HAL_Driver/Src/stm32l4xx_hal_dac.c ****   *         This parameter can be one of the following values:
1445:Drivers/STM32L4xx_HAL_Driver/Src/stm32l4xx_hal_dac.c ****   *          @arg @ref HAL_DAC_ERROR_INVALID_CALLBACK   DAC Error Callback ID
1446:Drivers/STM32L4xx_HAL_Driver/Src/stm32l4xx_hal_dac.c ****   *          @arg @ref HAL_DAC_CH1_COMPLETE_CB_ID       DAC CH1 Complete Callback ID
1447:Drivers/STM32L4xx_HAL_Driver/Src/stm32l4xx_hal_dac.c ****   *          @arg @ref HAL_DAC_CH1_HALF_COMPLETE_CB_ID  DAC CH1 Half Complete Callback ID
1448:Drivers/STM32L4xx_HAL_Driver/Src/stm32l4xx_hal_dac.c ****   *          @arg @ref HAL_DAC_CH1_ERROR_ID             DAC CH1 Error Callback ID
1449:Drivers/STM32L4xx_HAL_Driver/Src/stm32l4xx_hal_dac.c ****   *          @arg @ref HAL_DAC_CH1_UNDERRUN_CB_ID       DAC CH1 UnderRun Callback ID
1450:Drivers/STM32L4xx_HAL_Driver/Src/stm32l4xx_hal_dac.c ****   *          @arg @ref HAL_DAC_CH2_COMPLETE_CB_ID       DAC CH2 Complete Callback ID
1451:Drivers/STM32L4xx_HAL_Driver/Src/stm32l4xx_hal_dac.c ****   *          @arg @ref HAL_DAC_CH2_HALF_COMPLETE_CB_ID  DAC CH2 Half Complete Callback ID
1452:Drivers/STM32L4xx_HAL_Driver/Src/stm32l4xx_hal_dac.c ****   *          @arg @ref HAL_DAC_CH2_ERROR_ID             DAC CH2 Error Callback ID
1453:Drivers/STM32L4xx_HAL_Driver/Src/stm32l4xx_hal_dac.c ****   *          @arg @ref HAL_DAC_CH2_UNDERRUN_CB_ID       DAC CH2 UnderRun Callback ID
1454:Drivers/STM32L4xx_HAL_Driver/Src/stm32l4xx_hal_dac.c ****   *          @arg @ref HAL_DAC_MSPINIT_CB_ID            DAC MSP Init Callback ID
1455:Drivers/STM32L4xx_HAL_Driver/Src/stm32l4xx_hal_dac.c ****   *          @arg @ref HAL_DAC_MSPDEINIT_CB_ID          DAC MSP DeInit Callback ID
1456:Drivers/STM32L4xx_HAL_Driver/Src/stm32l4xx_hal_dac.c ****   *
1457:Drivers/STM32L4xx_HAL_Driver/Src/stm32l4xx_hal_dac.c ****   * @param  pCallback pointer to the Callback function
1458:Drivers/STM32L4xx_HAL_Driver/Src/stm32l4xx_hal_dac.c ****   * @retval status
1459:Drivers/STM32L4xx_HAL_Driver/Src/stm32l4xx_hal_dac.c ****   */
1460:Drivers/STM32L4xx_HAL_Driver/Src/stm32l4xx_hal_dac.c **** HAL_StatusTypeDef HAL_DAC_RegisterCallback(DAC_HandleTypeDef *hdac, HAL_DAC_CallbackIDTypeDef Callb
1461:Drivers/STM32L4xx_HAL_Driver/Src/stm32l4xx_hal_dac.c ****                                            pDAC_CallbackTypeDef pCallback)
1462:Drivers/STM32L4xx_HAL_Driver/Src/stm32l4xx_hal_dac.c **** {
1463:Drivers/STM32L4xx_HAL_Driver/Src/stm32l4xx_hal_dac.c ****   HAL_StatusTypeDef status = HAL_OK;
1464:Drivers/STM32L4xx_HAL_Driver/Src/stm32l4xx_hal_dac.c **** 
1465:Drivers/STM32L4xx_HAL_Driver/Src/stm32l4xx_hal_dac.c ****   if (pCallback == NULL)
1466:Drivers/STM32L4xx_HAL_Driver/Src/stm32l4xx_hal_dac.c ****   {
1467:Drivers/STM32L4xx_HAL_Driver/Src/stm32l4xx_hal_dac.c ****     /* Update the error code */
1468:Drivers/STM32L4xx_HAL_Driver/Src/stm32l4xx_hal_dac.c ****     hdac->ErrorCode |= HAL_DAC_ERROR_INVALID_CALLBACK;
1469:Drivers/STM32L4xx_HAL_Driver/Src/stm32l4xx_hal_dac.c ****     return HAL_ERROR;
1470:Drivers/STM32L4xx_HAL_Driver/Src/stm32l4xx_hal_dac.c ****   }
1471:Drivers/STM32L4xx_HAL_Driver/Src/stm32l4xx_hal_dac.c **** 
1472:Drivers/STM32L4xx_HAL_Driver/Src/stm32l4xx_hal_dac.c ****   /* Process locked */
1473:Drivers/STM32L4xx_HAL_Driver/Src/stm32l4xx_hal_dac.c ****   __HAL_LOCK(hdac);
1474:Drivers/STM32L4xx_HAL_Driver/Src/stm32l4xx_hal_dac.c **** 
1475:Drivers/STM32L4xx_HAL_Driver/Src/stm32l4xx_hal_dac.c ****   if (hdac->State == HAL_DAC_STATE_READY)
1476:Drivers/STM32L4xx_HAL_Driver/Src/stm32l4xx_hal_dac.c ****   {
1477:Drivers/STM32L4xx_HAL_Driver/Src/stm32l4xx_hal_dac.c ****     switch (CallbackID)
1478:Drivers/STM32L4xx_HAL_Driver/Src/stm32l4xx_hal_dac.c ****     {
1479:Drivers/STM32L4xx_HAL_Driver/Src/stm32l4xx_hal_dac.c ****     case HAL_DAC_CH1_COMPLETE_CB_ID :
1480:Drivers/STM32L4xx_HAL_Driver/Src/stm32l4xx_hal_dac.c ****       hdac->ConvCpltCallbackCh1 = pCallback;
1481:Drivers/STM32L4xx_HAL_Driver/Src/stm32l4xx_hal_dac.c ****       break;
1482:Drivers/STM32L4xx_HAL_Driver/Src/stm32l4xx_hal_dac.c ****     case HAL_DAC_CH1_HALF_COMPLETE_CB_ID :
1483:Drivers/STM32L4xx_HAL_Driver/Src/stm32l4xx_hal_dac.c ****       hdac->ConvHalfCpltCallbackCh1 = pCallback;
1484:Drivers/STM32L4xx_HAL_Driver/Src/stm32l4xx_hal_dac.c ****       break;
1485:Drivers/STM32L4xx_HAL_Driver/Src/stm32l4xx_hal_dac.c ****     case HAL_DAC_CH1_ERROR_ID :
1486:Drivers/STM32L4xx_HAL_Driver/Src/stm32l4xx_hal_dac.c ****       hdac->ErrorCallbackCh1 = pCallback;
ARM GAS  /tmp/ccNKo9M1.s 			page 39


1487:Drivers/STM32L4xx_HAL_Driver/Src/stm32l4xx_hal_dac.c ****       break;
1488:Drivers/STM32L4xx_HAL_Driver/Src/stm32l4xx_hal_dac.c ****     case HAL_DAC_CH1_UNDERRUN_CB_ID :
1489:Drivers/STM32L4xx_HAL_Driver/Src/stm32l4xx_hal_dac.c ****       hdac->DMAUnderrunCallbackCh1 = pCallback;
1490:Drivers/STM32L4xx_HAL_Driver/Src/stm32l4xx_hal_dac.c ****       break;
1491:Drivers/STM32L4xx_HAL_Driver/Src/stm32l4xx_hal_dac.c ****     case HAL_DAC_CH2_COMPLETE_CB_ID :
1492:Drivers/STM32L4xx_HAL_Driver/Src/stm32l4xx_hal_dac.c ****       hdac->ConvCpltCallbackCh2 = pCallback;
1493:Drivers/STM32L4xx_HAL_Driver/Src/stm32l4xx_hal_dac.c ****       break;
1494:Drivers/STM32L4xx_HAL_Driver/Src/stm32l4xx_hal_dac.c ****     case HAL_DAC_CH2_HALF_COMPLETE_CB_ID :
1495:Drivers/STM32L4xx_HAL_Driver/Src/stm32l4xx_hal_dac.c ****       hdac->ConvHalfCpltCallbackCh2 = pCallback;
1496:Drivers/STM32L4xx_HAL_Driver/Src/stm32l4xx_hal_dac.c ****       break;
1497:Drivers/STM32L4xx_HAL_Driver/Src/stm32l4xx_hal_dac.c ****     case HAL_DAC_CH2_ERROR_ID :
1498:Drivers/STM32L4xx_HAL_Driver/Src/stm32l4xx_hal_dac.c ****       hdac->ErrorCallbackCh2 = pCallback;
1499:Drivers/STM32L4xx_HAL_Driver/Src/stm32l4xx_hal_dac.c ****       break;
1500:Drivers/STM32L4xx_HAL_Driver/Src/stm32l4xx_hal_dac.c ****     case HAL_DAC_CH2_UNDERRUN_CB_ID :
1501:Drivers/STM32L4xx_HAL_Driver/Src/stm32l4xx_hal_dac.c ****       hdac->DMAUnderrunCallbackCh2 = pCallback;
1502:Drivers/STM32L4xx_HAL_Driver/Src/stm32l4xx_hal_dac.c ****       break;
1503:Drivers/STM32L4xx_HAL_Driver/Src/stm32l4xx_hal_dac.c ****     case HAL_DAC_MSPINIT_CB_ID :
1504:Drivers/STM32L4xx_HAL_Driver/Src/stm32l4xx_hal_dac.c ****       hdac->MspInitCallback = pCallback;
1505:Drivers/STM32L4xx_HAL_Driver/Src/stm32l4xx_hal_dac.c ****       break;
1506:Drivers/STM32L4xx_HAL_Driver/Src/stm32l4xx_hal_dac.c ****     case HAL_DAC_MSPDEINIT_CB_ID :
1507:Drivers/STM32L4xx_HAL_Driver/Src/stm32l4xx_hal_dac.c ****       hdac->MspDeInitCallback = pCallback;
1508:Drivers/STM32L4xx_HAL_Driver/Src/stm32l4xx_hal_dac.c ****       break;
1509:Drivers/STM32L4xx_HAL_Driver/Src/stm32l4xx_hal_dac.c ****     default :
1510:Drivers/STM32L4xx_HAL_Driver/Src/stm32l4xx_hal_dac.c ****       /* Update the error code */
1511:Drivers/STM32L4xx_HAL_Driver/Src/stm32l4xx_hal_dac.c ****       hdac->ErrorCode |= HAL_DAC_ERROR_INVALID_CALLBACK;
1512:Drivers/STM32L4xx_HAL_Driver/Src/stm32l4xx_hal_dac.c ****       /* update return status */
1513:Drivers/STM32L4xx_HAL_Driver/Src/stm32l4xx_hal_dac.c ****       status =  HAL_ERROR;
1514:Drivers/STM32L4xx_HAL_Driver/Src/stm32l4xx_hal_dac.c ****       break;
1515:Drivers/STM32L4xx_HAL_Driver/Src/stm32l4xx_hal_dac.c ****     }
1516:Drivers/STM32L4xx_HAL_Driver/Src/stm32l4xx_hal_dac.c ****   }
1517:Drivers/STM32L4xx_HAL_Driver/Src/stm32l4xx_hal_dac.c ****   else if (hdac->State == HAL_DAC_STATE_RESET)
1518:Drivers/STM32L4xx_HAL_Driver/Src/stm32l4xx_hal_dac.c ****   {
1519:Drivers/STM32L4xx_HAL_Driver/Src/stm32l4xx_hal_dac.c ****     switch (CallbackID)
1520:Drivers/STM32L4xx_HAL_Driver/Src/stm32l4xx_hal_dac.c ****     {
1521:Drivers/STM32L4xx_HAL_Driver/Src/stm32l4xx_hal_dac.c ****     case HAL_DAC_MSPINIT_CB_ID :
1522:Drivers/STM32L4xx_HAL_Driver/Src/stm32l4xx_hal_dac.c ****       hdac->MspInitCallback = pCallback;
1523:Drivers/STM32L4xx_HAL_Driver/Src/stm32l4xx_hal_dac.c ****       break;
1524:Drivers/STM32L4xx_HAL_Driver/Src/stm32l4xx_hal_dac.c ****     case HAL_DAC_MSPDEINIT_CB_ID :
1525:Drivers/STM32L4xx_HAL_Driver/Src/stm32l4xx_hal_dac.c ****       hdac->MspDeInitCallback = pCallback;
1526:Drivers/STM32L4xx_HAL_Driver/Src/stm32l4xx_hal_dac.c ****       break;
1527:Drivers/STM32L4xx_HAL_Driver/Src/stm32l4xx_hal_dac.c ****     default :
1528:Drivers/STM32L4xx_HAL_Driver/Src/stm32l4xx_hal_dac.c ****       /* Update the error code */
1529:Drivers/STM32L4xx_HAL_Driver/Src/stm32l4xx_hal_dac.c ****       hdac->ErrorCode |= HAL_DAC_ERROR_INVALID_CALLBACK;
1530:Drivers/STM32L4xx_HAL_Driver/Src/stm32l4xx_hal_dac.c ****       /* update return status */
1531:Drivers/STM32L4xx_HAL_Driver/Src/stm32l4xx_hal_dac.c ****       status =  HAL_ERROR;
1532:Drivers/STM32L4xx_HAL_Driver/Src/stm32l4xx_hal_dac.c ****       break;
1533:Drivers/STM32L4xx_HAL_Driver/Src/stm32l4xx_hal_dac.c ****     }
1534:Drivers/STM32L4xx_HAL_Driver/Src/stm32l4xx_hal_dac.c ****   }
1535:Drivers/STM32L4xx_HAL_Driver/Src/stm32l4xx_hal_dac.c ****   else
1536:Drivers/STM32L4xx_HAL_Driver/Src/stm32l4xx_hal_dac.c ****   {
1537:Drivers/STM32L4xx_HAL_Driver/Src/stm32l4xx_hal_dac.c ****     /* Update the error code */
1538:Drivers/STM32L4xx_HAL_Driver/Src/stm32l4xx_hal_dac.c ****     hdac->ErrorCode |= HAL_DAC_ERROR_INVALID_CALLBACK;
1539:Drivers/STM32L4xx_HAL_Driver/Src/stm32l4xx_hal_dac.c ****     /* update return status */
1540:Drivers/STM32L4xx_HAL_Driver/Src/stm32l4xx_hal_dac.c ****     status =  HAL_ERROR;
1541:Drivers/STM32L4xx_HAL_Driver/Src/stm32l4xx_hal_dac.c ****   }
1542:Drivers/STM32L4xx_HAL_Driver/Src/stm32l4xx_hal_dac.c **** 
1543:Drivers/STM32L4xx_HAL_Driver/Src/stm32l4xx_hal_dac.c ****   /* Release Lock */
ARM GAS  /tmp/ccNKo9M1.s 			page 40


1544:Drivers/STM32L4xx_HAL_Driver/Src/stm32l4xx_hal_dac.c ****   __HAL_UNLOCK(hdac);
1545:Drivers/STM32L4xx_HAL_Driver/Src/stm32l4xx_hal_dac.c ****   return status;
1546:Drivers/STM32L4xx_HAL_Driver/Src/stm32l4xx_hal_dac.c **** }
1547:Drivers/STM32L4xx_HAL_Driver/Src/stm32l4xx_hal_dac.c **** 
1548:Drivers/STM32L4xx_HAL_Driver/Src/stm32l4xx_hal_dac.c **** /**
1549:Drivers/STM32L4xx_HAL_Driver/Src/stm32l4xx_hal_dac.c ****   * @brief  Unregister a User DAC Callback
1550:Drivers/STM32L4xx_HAL_Driver/Src/stm32l4xx_hal_dac.c ****   *         DAC Callback is redirected to the weak (surcharged) predefined callback
1551:Drivers/STM32L4xx_HAL_Driver/Src/stm32l4xx_hal_dac.c ****   * @param  hdac DAC handle
1552:Drivers/STM32L4xx_HAL_Driver/Src/stm32l4xx_hal_dac.c ****   * @param  CallbackID ID of the callback to be unregistered
1553:Drivers/STM32L4xx_HAL_Driver/Src/stm32l4xx_hal_dac.c ****   *         This parameter can be one of the following values:
1554:Drivers/STM32L4xx_HAL_Driver/Src/stm32l4xx_hal_dac.c ****   *          @arg @ref HAL_DAC_CH1_COMPLETE_CB_ID          DAC CH1 tranfer Complete Callback ID
1555:Drivers/STM32L4xx_HAL_Driver/Src/stm32l4xx_hal_dac.c ****   *          @arg @ref HAL_DAC_CH1_HALF_COMPLETE_CB_ID     DAC CH1 Half Complete Callback ID
1556:Drivers/STM32L4xx_HAL_Driver/Src/stm32l4xx_hal_dac.c ****   *          @arg @ref HAL_DAC_CH1_ERROR_ID                DAC CH1 Error Callback ID
1557:Drivers/STM32L4xx_HAL_Driver/Src/stm32l4xx_hal_dac.c ****   *          @arg @ref HAL_DAC_CH1_UNDERRUN_CB_ID          DAC CH1 UnderRun Callback ID
1558:Drivers/STM32L4xx_HAL_Driver/Src/stm32l4xx_hal_dac.c ****   *          @arg @ref HAL_DAC_CH2_COMPLETE_CB_ID          DAC CH2 Complete Callback ID
1559:Drivers/STM32L4xx_HAL_Driver/Src/stm32l4xx_hal_dac.c ****   *          @arg @ref HAL_DAC_CH2_HALF_COMPLETE_CB_ID     DAC CH2 Half Complete Callback ID
1560:Drivers/STM32L4xx_HAL_Driver/Src/stm32l4xx_hal_dac.c ****   *          @arg @ref HAL_DAC_CH2_ERROR_ID                DAC CH2 Error Callback ID
1561:Drivers/STM32L4xx_HAL_Driver/Src/stm32l4xx_hal_dac.c ****   *          @arg @ref HAL_DAC_CH2_UNDERRUN_CB_ID          DAC CH2 UnderRun Callback ID
1562:Drivers/STM32L4xx_HAL_Driver/Src/stm32l4xx_hal_dac.c ****   *          @arg @ref HAL_DAC_MSPINIT_CB_ID               DAC MSP Init Callback ID
1563:Drivers/STM32L4xx_HAL_Driver/Src/stm32l4xx_hal_dac.c ****   *          @arg @ref HAL_DAC_MSPDEINIT_CB_ID             DAC MSP DeInit Callback ID
1564:Drivers/STM32L4xx_HAL_Driver/Src/stm32l4xx_hal_dac.c ****   *          @arg @ref HAL_DAC_ALL_CB_ID                   DAC All callbacks
1565:Drivers/STM32L4xx_HAL_Driver/Src/stm32l4xx_hal_dac.c ****   * @retval status
1566:Drivers/STM32L4xx_HAL_Driver/Src/stm32l4xx_hal_dac.c ****   */
1567:Drivers/STM32L4xx_HAL_Driver/Src/stm32l4xx_hal_dac.c **** HAL_StatusTypeDef HAL_DAC_UnRegisterCallback(DAC_HandleTypeDef *hdac, HAL_DAC_CallbackIDTypeDef Cal
1568:Drivers/STM32L4xx_HAL_Driver/Src/stm32l4xx_hal_dac.c **** {
1569:Drivers/STM32L4xx_HAL_Driver/Src/stm32l4xx_hal_dac.c ****   HAL_StatusTypeDef status = HAL_OK;
1570:Drivers/STM32L4xx_HAL_Driver/Src/stm32l4xx_hal_dac.c **** 
1571:Drivers/STM32L4xx_HAL_Driver/Src/stm32l4xx_hal_dac.c ****   /* Process locked */
1572:Drivers/STM32L4xx_HAL_Driver/Src/stm32l4xx_hal_dac.c ****   __HAL_LOCK(hdac);
1573:Drivers/STM32L4xx_HAL_Driver/Src/stm32l4xx_hal_dac.c **** 
1574:Drivers/STM32L4xx_HAL_Driver/Src/stm32l4xx_hal_dac.c ****   if (hdac->State == HAL_DAC_STATE_READY)
1575:Drivers/STM32L4xx_HAL_Driver/Src/stm32l4xx_hal_dac.c ****   {
1576:Drivers/STM32L4xx_HAL_Driver/Src/stm32l4xx_hal_dac.c ****     switch (CallbackID)
1577:Drivers/STM32L4xx_HAL_Driver/Src/stm32l4xx_hal_dac.c ****     {
1578:Drivers/STM32L4xx_HAL_Driver/Src/stm32l4xx_hal_dac.c ****     case HAL_DAC_CH1_COMPLETE_CB_ID :
1579:Drivers/STM32L4xx_HAL_Driver/Src/stm32l4xx_hal_dac.c ****       hdac->ConvCpltCallbackCh1 = HAL_DAC_ConvCpltCallbackCh1;
1580:Drivers/STM32L4xx_HAL_Driver/Src/stm32l4xx_hal_dac.c ****       break;
1581:Drivers/STM32L4xx_HAL_Driver/Src/stm32l4xx_hal_dac.c ****     case HAL_DAC_CH1_HALF_COMPLETE_CB_ID :
1582:Drivers/STM32L4xx_HAL_Driver/Src/stm32l4xx_hal_dac.c ****       hdac->ConvHalfCpltCallbackCh1 = HAL_DAC_ConvHalfCpltCallbackCh1;
1583:Drivers/STM32L4xx_HAL_Driver/Src/stm32l4xx_hal_dac.c ****       break;
1584:Drivers/STM32L4xx_HAL_Driver/Src/stm32l4xx_hal_dac.c ****     case HAL_DAC_CH1_ERROR_ID :
1585:Drivers/STM32L4xx_HAL_Driver/Src/stm32l4xx_hal_dac.c ****       hdac->ErrorCallbackCh1 = HAL_DAC_ErrorCallbackCh1;
1586:Drivers/STM32L4xx_HAL_Driver/Src/stm32l4xx_hal_dac.c ****       break;
1587:Drivers/STM32L4xx_HAL_Driver/Src/stm32l4xx_hal_dac.c ****     case HAL_DAC_CH1_UNDERRUN_CB_ID :
1588:Drivers/STM32L4xx_HAL_Driver/Src/stm32l4xx_hal_dac.c ****       hdac->DMAUnderrunCallbackCh1 = HAL_DAC_DMAUnderrunCallbackCh1;
1589:Drivers/STM32L4xx_HAL_Driver/Src/stm32l4xx_hal_dac.c ****       break;
1590:Drivers/STM32L4xx_HAL_Driver/Src/stm32l4xx_hal_dac.c **** #if defined (STM32L431xx) || defined (STM32L432xx) || defined (STM32L433xx) || defined (STM32L442xx
1591:Drivers/STM32L4xx_HAL_Driver/Src/stm32l4xx_hal_dac.c ****     defined (STM32L471xx) || defined (STM32L475xx) || defined (STM32L476xx) || defined (STM32L485xx
1592:Drivers/STM32L4xx_HAL_Driver/Src/stm32l4xx_hal_dac.c ****     defined (STM32L4P5xx) || defined (STM32L4Q5xx) || \
1593:Drivers/STM32L4xx_HAL_Driver/Src/stm32l4xx_hal_dac.c ****     defined (STM32L4R5xx) || defined (STM32L4R7xx) || defined (STM32L4R9xx) || defined (STM32L4S5xx
1594:Drivers/STM32L4xx_HAL_Driver/Src/stm32l4xx_hal_dac.c ****     case HAL_DAC_CH2_COMPLETE_CB_ID :
1595:Drivers/STM32L4xx_HAL_Driver/Src/stm32l4xx_hal_dac.c ****       hdac->ConvCpltCallbackCh2 = HAL_DACEx_ConvCpltCallbackCh2;
1596:Drivers/STM32L4xx_HAL_Driver/Src/stm32l4xx_hal_dac.c ****       break;
1597:Drivers/STM32L4xx_HAL_Driver/Src/stm32l4xx_hal_dac.c ****     case HAL_DAC_CH2_HALF_COMPLETE_CB_ID :
1598:Drivers/STM32L4xx_HAL_Driver/Src/stm32l4xx_hal_dac.c ****       hdac->ConvHalfCpltCallbackCh2 = HAL_DACEx_ConvHalfCpltCallbackCh2;
1599:Drivers/STM32L4xx_HAL_Driver/Src/stm32l4xx_hal_dac.c ****       break;
1600:Drivers/STM32L4xx_HAL_Driver/Src/stm32l4xx_hal_dac.c ****     case HAL_DAC_CH2_ERROR_ID :
ARM GAS  /tmp/ccNKo9M1.s 			page 41


1601:Drivers/STM32L4xx_HAL_Driver/Src/stm32l4xx_hal_dac.c ****       hdac->ErrorCallbackCh2 = HAL_DACEx_ErrorCallbackCh2;
1602:Drivers/STM32L4xx_HAL_Driver/Src/stm32l4xx_hal_dac.c ****       break;
1603:Drivers/STM32L4xx_HAL_Driver/Src/stm32l4xx_hal_dac.c ****     case HAL_DAC_CH2_UNDERRUN_CB_ID :
1604:Drivers/STM32L4xx_HAL_Driver/Src/stm32l4xx_hal_dac.c ****       hdac->DMAUnderrunCallbackCh2 = HAL_DACEx_DMAUnderrunCallbackCh2;
1605:Drivers/STM32L4xx_HAL_Driver/Src/stm32l4xx_hal_dac.c ****       break;
1606:Drivers/STM32L4xx_HAL_Driver/Src/stm32l4xx_hal_dac.c **** #endif  /* STM32L431xx STM32L432xx STM32L433xx STM32L442xx STM32L443xx                         */
1607:Drivers/STM32L4xx_HAL_Driver/Src/stm32l4xx_hal_dac.c ****         /* STM32L471xx STM32L475xx STM32L476xx STM32L485xx STM32L486xx STM32L496xx STM32L4A6xx */
1608:Drivers/STM32L4xx_HAL_Driver/Src/stm32l4xx_hal_dac.c ****         /* STM32L4P5xx STM32L4Q5xx                                                             */
1609:Drivers/STM32L4xx_HAL_Driver/Src/stm32l4xx_hal_dac.c ****         /* STM32L4R5xx STM32L4R7xx STM32L4R9xx STM32L4S5xx STM32L4S7xx STM32L4S9xx             */
1610:Drivers/STM32L4xx_HAL_Driver/Src/stm32l4xx_hal_dac.c ****     case HAL_DAC_MSPINIT_CB_ID :
1611:Drivers/STM32L4xx_HAL_Driver/Src/stm32l4xx_hal_dac.c ****       hdac->MspInitCallback = HAL_DAC_MspInit;
1612:Drivers/STM32L4xx_HAL_Driver/Src/stm32l4xx_hal_dac.c ****       break;
1613:Drivers/STM32L4xx_HAL_Driver/Src/stm32l4xx_hal_dac.c ****     case HAL_DAC_MSPDEINIT_CB_ID :
1614:Drivers/STM32L4xx_HAL_Driver/Src/stm32l4xx_hal_dac.c ****       hdac->MspDeInitCallback = HAL_DAC_MspDeInit;
1615:Drivers/STM32L4xx_HAL_Driver/Src/stm32l4xx_hal_dac.c ****       break;
1616:Drivers/STM32L4xx_HAL_Driver/Src/stm32l4xx_hal_dac.c ****     case HAL_DAC_ALL_CB_ID :
1617:Drivers/STM32L4xx_HAL_Driver/Src/stm32l4xx_hal_dac.c ****       hdac->ConvCpltCallbackCh1 = HAL_DAC_ConvCpltCallbackCh1;
1618:Drivers/STM32L4xx_HAL_Driver/Src/stm32l4xx_hal_dac.c ****       hdac->ConvHalfCpltCallbackCh1 = HAL_DAC_ConvHalfCpltCallbackCh1;
1619:Drivers/STM32L4xx_HAL_Driver/Src/stm32l4xx_hal_dac.c ****       hdac->ErrorCallbackCh1 = HAL_DAC_ErrorCallbackCh1;
1620:Drivers/STM32L4xx_HAL_Driver/Src/stm32l4xx_hal_dac.c ****       hdac->DMAUnderrunCallbackCh1 = HAL_DAC_DMAUnderrunCallbackCh1;
1621:Drivers/STM32L4xx_HAL_Driver/Src/stm32l4xx_hal_dac.c **** #if defined (STM32L431xx) || defined (STM32L432xx) || defined (STM32L433xx) || defined (STM32L442xx
1622:Drivers/STM32L4xx_HAL_Driver/Src/stm32l4xx_hal_dac.c ****     defined (STM32L471xx) || defined (STM32L475xx) || defined (STM32L476xx) || defined (STM32L485xx
1623:Drivers/STM32L4xx_HAL_Driver/Src/stm32l4xx_hal_dac.c ****     defined (STM32L4P5xx) || defined (STM32L4Q5xx) || \
1624:Drivers/STM32L4xx_HAL_Driver/Src/stm32l4xx_hal_dac.c ****     defined (STM32L4R5xx) || defined (STM32L4R7xx) || defined (STM32L4R9xx) || defined (STM32L4S5xx
1625:Drivers/STM32L4xx_HAL_Driver/Src/stm32l4xx_hal_dac.c ****       hdac->ConvCpltCallbackCh2 = HAL_DACEx_ConvCpltCallbackCh2;
1626:Drivers/STM32L4xx_HAL_Driver/Src/stm32l4xx_hal_dac.c ****       hdac->ConvHalfCpltCallbackCh2 = HAL_DACEx_ConvHalfCpltCallbackCh2;
1627:Drivers/STM32L4xx_HAL_Driver/Src/stm32l4xx_hal_dac.c ****       hdac->ErrorCallbackCh2 = HAL_DACEx_ErrorCallbackCh2;
1628:Drivers/STM32L4xx_HAL_Driver/Src/stm32l4xx_hal_dac.c ****       hdac->DMAUnderrunCallbackCh2 = HAL_DACEx_DMAUnderrunCallbackCh2;
1629:Drivers/STM32L4xx_HAL_Driver/Src/stm32l4xx_hal_dac.c **** #endif  /* STM32L431xx STM32L432xx STM32L433xx STM32L442xx STM32L443xx                         */
1630:Drivers/STM32L4xx_HAL_Driver/Src/stm32l4xx_hal_dac.c ****         /* STM32L471xx STM32L475xx STM32L476xx STM32L485xx STM32L486xx STM32L496xx STM32L4A6xx */
1631:Drivers/STM32L4xx_HAL_Driver/Src/stm32l4xx_hal_dac.c ****         /* STM32L4P5xx STM32L4Q5xx                                                             */
1632:Drivers/STM32L4xx_HAL_Driver/Src/stm32l4xx_hal_dac.c ****         /* STM32L4R5xx STM32L4R7xx STM32L4R9xx STM32L4S5xx STM32L4S7xx STM32L4S9xx             */
1633:Drivers/STM32L4xx_HAL_Driver/Src/stm32l4xx_hal_dac.c ****       hdac->MspInitCallback = HAL_DAC_MspInit;
1634:Drivers/STM32L4xx_HAL_Driver/Src/stm32l4xx_hal_dac.c ****       hdac->MspDeInitCallback = HAL_DAC_MspDeInit;
1635:Drivers/STM32L4xx_HAL_Driver/Src/stm32l4xx_hal_dac.c ****       break;
1636:Drivers/STM32L4xx_HAL_Driver/Src/stm32l4xx_hal_dac.c ****     default :
1637:Drivers/STM32L4xx_HAL_Driver/Src/stm32l4xx_hal_dac.c ****       /* Update the error code */
1638:Drivers/STM32L4xx_HAL_Driver/Src/stm32l4xx_hal_dac.c ****       hdac->ErrorCode |= HAL_DAC_ERROR_INVALID_CALLBACK;
1639:Drivers/STM32L4xx_HAL_Driver/Src/stm32l4xx_hal_dac.c ****       /* update return status */
1640:Drivers/STM32L4xx_HAL_Driver/Src/stm32l4xx_hal_dac.c ****       status =  HAL_ERROR;
1641:Drivers/STM32L4xx_HAL_Driver/Src/stm32l4xx_hal_dac.c ****       break;
1642:Drivers/STM32L4xx_HAL_Driver/Src/stm32l4xx_hal_dac.c ****     }
1643:Drivers/STM32L4xx_HAL_Driver/Src/stm32l4xx_hal_dac.c ****   }
1644:Drivers/STM32L4xx_HAL_Driver/Src/stm32l4xx_hal_dac.c ****   else if (hdac->State == HAL_DAC_STATE_RESET)
1645:Drivers/STM32L4xx_HAL_Driver/Src/stm32l4xx_hal_dac.c ****   {
1646:Drivers/STM32L4xx_HAL_Driver/Src/stm32l4xx_hal_dac.c ****     switch (CallbackID)
1647:Drivers/STM32L4xx_HAL_Driver/Src/stm32l4xx_hal_dac.c ****     {
1648:Drivers/STM32L4xx_HAL_Driver/Src/stm32l4xx_hal_dac.c ****     case HAL_DAC_MSPINIT_CB_ID :
1649:Drivers/STM32L4xx_HAL_Driver/Src/stm32l4xx_hal_dac.c ****       hdac->MspInitCallback = HAL_DAC_MspInit;
1650:Drivers/STM32L4xx_HAL_Driver/Src/stm32l4xx_hal_dac.c ****       break;
1651:Drivers/STM32L4xx_HAL_Driver/Src/stm32l4xx_hal_dac.c ****     case HAL_DAC_MSPDEINIT_CB_ID :
1652:Drivers/STM32L4xx_HAL_Driver/Src/stm32l4xx_hal_dac.c ****       hdac->MspDeInitCallback = HAL_DAC_MspDeInit;
1653:Drivers/STM32L4xx_HAL_Driver/Src/stm32l4xx_hal_dac.c ****       break;
1654:Drivers/STM32L4xx_HAL_Driver/Src/stm32l4xx_hal_dac.c ****     default :
1655:Drivers/STM32L4xx_HAL_Driver/Src/stm32l4xx_hal_dac.c ****       /* Update the error code */
1656:Drivers/STM32L4xx_HAL_Driver/Src/stm32l4xx_hal_dac.c ****       hdac->ErrorCode |= HAL_DAC_ERROR_INVALID_CALLBACK;
1657:Drivers/STM32L4xx_HAL_Driver/Src/stm32l4xx_hal_dac.c ****       /* update return status */
ARM GAS  /tmp/ccNKo9M1.s 			page 42


1658:Drivers/STM32L4xx_HAL_Driver/Src/stm32l4xx_hal_dac.c ****       status =  HAL_ERROR;
1659:Drivers/STM32L4xx_HAL_Driver/Src/stm32l4xx_hal_dac.c ****       break;
1660:Drivers/STM32L4xx_HAL_Driver/Src/stm32l4xx_hal_dac.c ****     }
1661:Drivers/STM32L4xx_HAL_Driver/Src/stm32l4xx_hal_dac.c ****   }
1662:Drivers/STM32L4xx_HAL_Driver/Src/stm32l4xx_hal_dac.c ****   else
1663:Drivers/STM32L4xx_HAL_Driver/Src/stm32l4xx_hal_dac.c ****   {
1664:Drivers/STM32L4xx_HAL_Driver/Src/stm32l4xx_hal_dac.c ****     /* Update the error code */
1665:Drivers/STM32L4xx_HAL_Driver/Src/stm32l4xx_hal_dac.c ****     hdac->ErrorCode |= HAL_DAC_ERROR_INVALID_CALLBACK;
1666:Drivers/STM32L4xx_HAL_Driver/Src/stm32l4xx_hal_dac.c ****     /* update return status */
1667:Drivers/STM32L4xx_HAL_Driver/Src/stm32l4xx_hal_dac.c ****     status =  HAL_ERROR;
1668:Drivers/STM32L4xx_HAL_Driver/Src/stm32l4xx_hal_dac.c ****   }
1669:Drivers/STM32L4xx_HAL_Driver/Src/stm32l4xx_hal_dac.c **** 
1670:Drivers/STM32L4xx_HAL_Driver/Src/stm32l4xx_hal_dac.c ****   /* Release Lock */
1671:Drivers/STM32L4xx_HAL_Driver/Src/stm32l4xx_hal_dac.c ****   __HAL_UNLOCK(hdac);
1672:Drivers/STM32L4xx_HAL_Driver/Src/stm32l4xx_hal_dac.c ****   return status;
1673:Drivers/STM32L4xx_HAL_Driver/Src/stm32l4xx_hal_dac.c **** }
1674:Drivers/STM32L4xx_HAL_Driver/Src/stm32l4xx_hal_dac.c **** #endif /* USE_HAL_DAC_REGISTER_CALLBACKS */
1675:Drivers/STM32L4xx_HAL_Driver/Src/stm32l4xx_hal_dac.c **** 
1676:Drivers/STM32L4xx_HAL_Driver/Src/stm32l4xx_hal_dac.c **** /**
1677:Drivers/STM32L4xx_HAL_Driver/Src/stm32l4xx_hal_dac.c ****   * @}
1678:Drivers/STM32L4xx_HAL_Driver/Src/stm32l4xx_hal_dac.c ****   */
1679:Drivers/STM32L4xx_HAL_Driver/Src/stm32l4xx_hal_dac.c **** 
1680:Drivers/STM32L4xx_HAL_Driver/Src/stm32l4xx_hal_dac.c **** /**
1681:Drivers/STM32L4xx_HAL_Driver/Src/stm32l4xx_hal_dac.c ****   * @}
1682:Drivers/STM32L4xx_HAL_Driver/Src/stm32l4xx_hal_dac.c ****   */
1683:Drivers/STM32L4xx_HAL_Driver/Src/stm32l4xx_hal_dac.c **** 
1684:Drivers/STM32L4xx_HAL_Driver/Src/stm32l4xx_hal_dac.c **** /** @addtogroup DAC_Private_Functions
1685:Drivers/STM32L4xx_HAL_Driver/Src/stm32l4xx_hal_dac.c ****   * @{
1686:Drivers/STM32L4xx_HAL_Driver/Src/stm32l4xx_hal_dac.c ****   */
1687:Drivers/STM32L4xx_HAL_Driver/Src/stm32l4xx_hal_dac.c **** 
1688:Drivers/STM32L4xx_HAL_Driver/Src/stm32l4xx_hal_dac.c **** /**
1689:Drivers/STM32L4xx_HAL_Driver/Src/stm32l4xx_hal_dac.c ****   * @brief  DMA conversion complete callback.
1690:Drivers/STM32L4xx_HAL_Driver/Src/stm32l4xx_hal_dac.c ****   * @param  hdma pointer to a DMA_HandleTypeDef structure that contains
1691:Drivers/STM32L4xx_HAL_Driver/Src/stm32l4xx_hal_dac.c ****   *                the configuration information for the specified DMA module.
1692:Drivers/STM32L4xx_HAL_Driver/Src/stm32l4xx_hal_dac.c ****   * @retval None
1693:Drivers/STM32L4xx_HAL_Driver/Src/stm32l4xx_hal_dac.c ****   */
1694:Drivers/STM32L4xx_HAL_Driver/Src/stm32l4xx_hal_dac.c **** void DAC_DMAConvCpltCh1(DMA_HandleTypeDef *hdma)
1695:Drivers/STM32L4xx_HAL_Driver/Src/stm32l4xx_hal_dac.c **** {
 677              		.loc 1 1695 0
 678              		.cfi_startproc
 679              		@ args = 0, pretend = 0, frame = 0
 680              		@ frame_needed = 0, uses_anonymous_args = 0
 681              	.LVL60:
 682              		.loc 1 1695 0
 683 0000 10B5     		push	{r4, lr}
 684              	.LCFI16:
 685              		.cfi_def_cfa_offset 8
 686              		.cfi_offset 4, -8
 687              		.cfi_offset 14, -4
1696:Drivers/STM32L4xx_HAL_Driver/Src/stm32l4xx_hal_dac.c ****   DAC_HandleTypeDef *hdac = (DAC_HandleTypeDef *)((DMA_HandleTypeDef *)hdma)->Parent;
 688              		.loc 1 1696 0
 689 0002 846A     		ldr	r4, [r0, #40]
 690              	.LVL61:
1697:Drivers/STM32L4xx_HAL_Driver/Src/stm32l4xx_hal_dac.c **** 
1698:Drivers/STM32L4xx_HAL_Driver/Src/stm32l4xx_hal_dac.c **** #if (USE_HAL_DAC_REGISTER_CALLBACKS == 1)
1699:Drivers/STM32L4xx_HAL_Driver/Src/stm32l4xx_hal_dac.c ****   hdac->ConvCpltCallbackCh1(hdac);
1700:Drivers/STM32L4xx_HAL_Driver/Src/stm32l4xx_hal_dac.c **** #else
ARM GAS  /tmp/ccNKo9M1.s 			page 43


1701:Drivers/STM32L4xx_HAL_Driver/Src/stm32l4xx_hal_dac.c ****   HAL_DAC_ConvCpltCallbackCh1(hdac);
 691              		.loc 1 1701 0
 692 0004 2046     		mov	r0, r4
 693              	.LVL62:
 694 0006 FFF7FEFF 		bl	HAL_DAC_ConvCpltCallbackCh1
 695              	.LVL63:
1702:Drivers/STM32L4xx_HAL_Driver/Src/stm32l4xx_hal_dac.c **** #endif /* USE_HAL_DAC_REGISTER_CALLBACKS */
1703:Drivers/STM32L4xx_HAL_Driver/Src/stm32l4xx_hal_dac.c **** 
1704:Drivers/STM32L4xx_HAL_Driver/Src/stm32l4xx_hal_dac.c ****   hdac->State = HAL_DAC_STATE_READY;
 696              		.loc 1 1704 0
 697 000a 0123     		movs	r3, #1
 698 000c 2371     		strb	r3, [r4, #4]
 699 000e 10BD     		pop	{r4, pc}
 700              		.cfi_endproc
 701              	.LFE306:
 703              		.section	.text.HAL_DAC_ConvHalfCpltCallbackCh1,"ax",%progbits
 704              		.align	2
 705              		.weak	HAL_DAC_ConvHalfCpltCallbackCh1
 706              		.thumb
 707              		.thumb_func
 709              	HAL_DAC_ConvHalfCpltCallbackCh1:
 710              	.LFB299:
1085:Drivers/STM32L4xx_HAL_Driver/Src/stm32l4xx_hal_dac.c ****   /* Prevent unused argument(s) compilation warning */
 711              		.loc 1 1085 0
 712              		.cfi_startproc
 713              		@ args = 0, pretend = 0, frame = 0
 714              		@ frame_needed = 0, uses_anonymous_args = 0
 715              		@ link register save eliminated.
 716              	.LVL64:
 717 0000 7047     		bx	lr
 718              		.cfi_endproc
 719              	.LFE299:
 721 0002 00BF     		.section	.text.DAC_DMAHalfConvCpltCh1,"ax",%progbits
 722              		.align	2
 723              		.global	DAC_DMAHalfConvCpltCh1
 724              		.thumb
 725              		.thumb_func
 727              	DAC_DMAHalfConvCpltCh1:
 728              	.LFB307:
1705:Drivers/STM32L4xx_HAL_Driver/Src/stm32l4xx_hal_dac.c **** }
1706:Drivers/STM32L4xx_HAL_Driver/Src/stm32l4xx_hal_dac.c **** 
1707:Drivers/STM32L4xx_HAL_Driver/Src/stm32l4xx_hal_dac.c **** /**
1708:Drivers/STM32L4xx_HAL_Driver/Src/stm32l4xx_hal_dac.c ****   * @brief  DMA half transfer complete callback.
1709:Drivers/STM32L4xx_HAL_Driver/Src/stm32l4xx_hal_dac.c ****   * @param  hdma pointer to a DMA_HandleTypeDef structure that contains
1710:Drivers/STM32L4xx_HAL_Driver/Src/stm32l4xx_hal_dac.c ****   *                the configuration information for the specified DMA module.
1711:Drivers/STM32L4xx_HAL_Driver/Src/stm32l4xx_hal_dac.c ****   * @retval None
1712:Drivers/STM32L4xx_HAL_Driver/Src/stm32l4xx_hal_dac.c ****   */
1713:Drivers/STM32L4xx_HAL_Driver/Src/stm32l4xx_hal_dac.c **** void DAC_DMAHalfConvCpltCh1(DMA_HandleTypeDef *hdma)
1714:Drivers/STM32L4xx_HAL_Driver/Src/stm32l4xx_hal_dac.c **** {
 729              		.loc 1 1714 0
 730              		.cfi_startproc
 731              		@ args = 0, pretend = 0, frame = 0
 732              		@ frame_needed = 0, uses_anonymous_args = 0
 733              	.LVL65:
 734              		.loc 1 1714 0
 735 0000 08B5     		push	{r3, lr}
 736              	.LCFI17:
ARM GAS  /tmp/ccNKo9M1.s 			page 44


 737              		.cfi_def_cfa_offset 8
 738              		.cfi_offset 3, -8
 739              		.cfi_offset 14, -4
 740              	.LVL66:
1715:Drivers/STM32L4xx_HAL_Driver/Src/stm32l4xx_hal_dac.c ****   DAC_HandleTypeDef *hdac = (DAC_HandleTypeDef *)((DMA_HandleTypeDef *)hdma)->Parent;
1716:Drivers/STM32L4xx_HAL_Driver/Src/stm32l4xx_hal_dac.c ****   /* Conversion complete callback */
1717:Drivers/STM32L4xx_HAL_Driver/Src/stm32l4xx_hal_dac.c **** #if (USE_HAL_DAC_REGISTER_CALLBACKS == 1)
1718:Drivers/STM32L4xx_HAL_Driver/Src/stm32l4xx_hal_dac.c ****   hdac->ConvHalfCpltCallbackCh1(hdac);
1719:Drivers/STM32L4xx_HAL_Driver/Src/stm32l4xx_hal_dac.c **** #else
1720:Drivers/STM32L4xx_HAL_Driver/Src/stm32l4xx_hal_dac.c ****   HAL_DAC_ConvHalfCpltCallbackCh1(hdac);
 741              		.loc 1 1720 0
 742 0002 806A     		ldr	r0, [r0, #40]
 743              	.LVL67:
 744 0004 FFF7FEFF 		bl	HAL_DAC_ConvHalfCpltCallbackCh1
 745              	.LVL68:
 746 0008 08BD     		pop	{r3, pc}
 747              		.cfi_endproc
 748              	.LFE307:
 750 000a 00BF     		.section	.text.HAL_DAC_ErrorCallbackCh1,"ax",%progbits
 751              		.align	2
 752              		.weak	HAL_DAC_ErrorCallbackCh1
 753              		.thumb
 754              		.thumb_func
 756              	HAL_DAC_ErrorCallbackCh1:
 757              	.LFB300:
1101:Drivers/STM32L4xx_HAL_Driver/Src/stm32l4xx_hal_dac.c ****   /* Prevent unused argument(s) compilation warning */
 758              		.loc 1 1101 0
 759              		.cfi_startproc
 760              		@ args = 0, pretend = 0, frame = 0
 761              		@ frame_needed = 0, uses_anonymous_args = 0
 762              		@ link register save eliminated.
 763              	.LVL69:
 764 0000 7047     		bx	lr
 765              		.cfi_endproc
 766              	.LFE300:
 768 0002 00BF     		.section	.text.DAC_DMAErrorCh1,"ax",%progbits
 769              		.align	2
 770              		.global	DAC_DMAErrorCh1
 771              		.thumb
 772              		.thumb_func
 774              	DAC_DMAErrorCh1:
 775              	.LFB308:
1721:Drivers/STM32L4xx_HAL_Driver/Src/stm32l4xx_hal_dac.c **** #endif  /* USE_HAL_DAC_REGISTER_CALLBACKS */
1722:Drivers/STM32L4xx_HAL_Driver/Src/stm32l4xx_hal_dac.c **** }
1723:Drivers/STM32L4xx_HAL_Driver/Src/stm32l4xx_hal_dac.c **** 
1724:Drivers/STM32L4xx_HAL_Driver/Src/stm32l4xx_hal_dac.c **** /**
1725:Drivers/STM32L4xx_HAL_Driver/Src/stm32l4xx_hal_dac.c ****   * @brief  DMA error callback
1726:Drivers/STM32L4xx_HAL_Driver/Src/stm32l4xx_hal_dac.c ****   * @param  hdma pointer to a DMA_HandleTypeDef structure that contains
1727:Drivers/STM32L4xx_HAL_Driver/Src/stm32l4xx_hal_dac.c ****   *                the configuration information for the specified DMA module.
1728:Drivers/STM32L4xx_HAL_Driver/Src/stm32l4xx_hal_dac.c ****   * @retval None
1729:Drivers/STM32L4xx_HAL_Driver/Src/stm32l4xx_hal_dac.c ****   */
1730:Drivers/STM32L4xx_HAL_Driver/Src/stm32l4xx_hal_dac.c **** void DAC_DMAErrorCh1(DMA_HandleTypeDef *hdma)
1731:Drivers/STM32L4xx_HAL_Driver/Src/stm32l4xx_hal_dac.c **** {
 776              		.loc 1 1731 0
 777              		.cfi_startproc
 778              		@ args = 0, pretend = 0, frame = 0
 779              		@ frame_needed = 0, uses_anonymous_args = 0
ARM GAS  /tmp/ccNKo9M1.s 			page 45


 780              	.LVL70:
 781              		.loc 1 1731 0
 782 0000 10B5     		push	{r4, lr}
 783              	.LCFI18:
 784              		.cfi_def_cfa_offset 8
 785              		.cfi_offset 4, -8
 786              		.cfi_offset 14, -4
1732:Drivers/STM32L4xx_HAL_Driver/Src/stm32l4xx_hal_dac.c ****   DAC_HandleTypeDef *hdac = (DAC_HandleTypeDef *)((DMA_HandleTypeDef *)hdma)->Parent;
 787              		.loc 1 1732 0
 788 0002 846A     		ldr	r4, [r0, #40]
 789              	.LVL71:
1733:Drivers/STM32L4xx_HAL_Driver/Src/stm32l4xx_hal_dac.c **** 
1734:Drivers/STM32L4xx_HAL_Driver/Src/stm32l4xx_hal_dac.c ****   /* Set DAC error code to DMA error */
1735:Drivers/STM32L4xx_HAL_Driver/Src/stm32l4xx_hal_dac.c ****   hdac->ErrorCode |= HAL_DAC_ERROR_DMA;
 790              		.loc 1 1735 0
 791 0004 2369     		ldr	r3, [r4, #16]
 792 0006 43F00403 		orr	r3, r3, #4
 793 000a 2361     		str	r3, [r4, #16]
1736:Drivers/STM32L4xx_HAL_Driver/Src/stm32l4xx_hal_dac.c **** 
1737:Drivers/STM32L4xx_HAL_Driver/Src/stm32l4xx_hal_dac.c **** #if (USE_HAL_DAC_REGISTER_CALLBACKS == 1)
1738:Drivers/STM32L4xx_HAL_Driver/Src/stm32l4xx_hal_dac.c ****   hdac->ErrorCallbackCh1(hdac);
1739:Drivers/STM32L4xx_HAL_Driver/Src/stm32l4xx_hal_dac.c **** #else
1740:Drivers/STM32L4xx_HAL_Driver/Src/stm32l4xx_hal_dac.c ****   HAL_DAC_ErrorCallbackCh1(hdac);
 794              		.loc 1 1740 0
 795 000c 2046     		mov	r0, r4
 796              	.LVL72:
 797 000e FFF7FEFF 		bl	HAL_DAC_ErrorCallbackCh1
 798              	.LVL73:
1741:Drivers/STM32L4xx_HAL_Driver/Src/stm32l4xx_hal_dac.c **** #endif /* USE_HAL_DAC_REGISTER_CALLBACKS */
1742:Drivers/STM32L4xx_HAL_Driver/Src/stm32l4xx_hal_dac.c **** 
1743:Drivers/STM32L4xx_HAL_Driver/Src/stm32l4xx_hal_dac.c ****   hdac->State = HAL_DAC_STATE_READY;
 799              		.loc 1 1743 0
 800 0012 0123     		movs	r3, #1
 801 0014 2371     		strb	r3, [r4, #4]
 802 0016 10BD     		pop	{r4, pc}
 803              		.cfi_endproc
 804              	.LFE308:
 806              		.section	.text.HAL_DAC_DMAUnderrunCallbackCh1,"ax",%progbits
 807              		.align	2
 808              		.weak	HAL_DAC_DMAUnderrunCallbackCh1
 809              		.thumb
 810              		.thumb_func
 812              	HAL_DAC_DMAUnderrunCallbackCh1:
 813              	.LFB301:
1117:Drivers/STM32L4xx_HAL_Driver/Src/stm32l4xx_hal_dac.c ****   /* Prevent unused argument(s) compilation warning */
 814              		.loc 1 1117 0
 815              		.cfi_startproc
 816              		@ args = 0, pretend = 0, frame = 0
 817              		@ frame_needed = 0, uses_anonymous_args = 0
 818              		@ link register save eliminated.
 819              	.LVL74:
 820 0000 7047     		bx	lr
 821              		.cfi_endproc
 822              	.LFE301:
 824 0002 00BF     		.section	.text.HAL_DAC_IRQHandler,"ax",%progbits
 825              		.align	2
 826              		.global	HAL_DAC_IRQHandler
ARM GAS  /tmp/ccNKo9M1.s 			page 46


 827              		.thumb
 828              		.thumb_func
 830              	HAL_DAC_IRQHandler:
 831              	.LFB296:
 959:Drivers/STM32L4xx_HAL_Driver/Src/stm32l4xx_hal_dac.c ****   if (__HAL_DAC_GET_IT_SOURCE(hdac, DAC_IT_DMAUDR1))
 832              		.loc 1 959 0
 833              		.cfi_startproc
 834              		@ args = 0, pretend = 0, frame = 0
 835              		@ frame_needed = 0, uses_anonymous_args = 0
 836              	.LVL75:
 959:Drivers/STM32L4xx_HAL_Driver/Src/stm32l4xx_hal_dac.c ****   if (__HAL_DAC_GET_IT_SOURCE(hdac, DAC_IT_DMAUDR1))
 837              		.loc 1 959 0
 838 0000 10B5     		push	{r4, lr}
 839              	.LCFI19:
 840              		.cfi_def_cfa_offset 8
 841              		.cfi_offset 4, -8
 842              		.cfi_offset 14, -4
 843 0002 0446     		mov	r4, r0
 960:Drivers/STM32L4xx_HAL_Driver/Src/stm32l4xx_hal_dac.c ****   {
 844              		.loc 1 960 0
 845 0004 0368     		ldr	r3, [r0]
 846 0006 1A68     		ldr	r2, [r3]
 847 0008 12F4005F 		tst	r2, #8192
 848 000c 13D0     		beq	.L63
 963:Drivers/STM32L4xx_HAL_Driver/Src/stm32l4xx_hal_dac.c ****     {
 849              		.loc 1 963 0
 850 000e 5A6B     		ldr	r2, [r3, #52]
 851 0010 12F4005F 		tst	r2, #8192
 852 0014 0FD0     		beq	.L63
 966:Drivers/STM32L4xx_HAL_Driver/Src/stm32l4xx_hal_dac.c **** 
 853              		.loc 1 966 0
 854 0016 0422     		movs	r2, #4
 855 0018 0271     		strb	r2, [r0, #4]
 969:Drivers/STM32L4xx_HAL_Driver/Src/stm32l4xx_hal_dac.c **** 
 856              		.loc 1 969 0
 857 001a 0269     		ldr	r2, [r0, #16]
 858 001c 42F00102 		orr	r2, r2, #1
 859 0020 0261     		str	r2, [r0, #16]
 972:Drivers/STM32L4xx_HAL_Driver/Src/stm32l4xx_hal_dac.c **** 
 860              		.loc 1 972 0
 861 0022 4FF40052 		mov	r2, #8192
 862 0026 5A63     		str	r2, [r3, #52]
 975:Drivers/STM32L4xx_HAL_Driver/Src/stm32l4xx_hal_dac.c **** 
 863              		.loc 1 975 0
 864 0028 0268     		ldr	r2, [r0]
 865 002a 1368     		ldr	r3, [r2]
 866 002c 23F48053 		bic	r3, r3, #4096
 867 0030 1360     		str	r3, [r2]
 981:Drivers/STM32L4xx_HAL_Driver/Src/stm32l4xx_hal_dac.c **** #endif /* USE_HAL_DAC_REGISTER_CALLBACKS */
 868              		.loc 1 981 0
 869 0032 FFF7FEFF 		bl	HAL_DAC_DMAUnderrunCallbackCh1
 870              	.LVL76:
 871              	.L63:
 989:Drivers/STM32L4xx_HAL_Driver/Src/stm32l4xx_hal_dac.c ****   {
 872              		.loc 1 989 0
 873 0036 2368     		ldr	r3, [r4]
 874 0038 1A68     		ldr	r2, [r3]
ARM GAS  /tmp/ccNKo9M1.s 			page 47


 875 003a 12F0005F 		tst	r2, #536870912
 876 003e 14D0     		beq	.L62
 992:Drivers/STM32L4xx_HAL_Driver/Src/stm32l4xx_hal_dac.c ****     {
 877              		.loc 1 992 0
 878 0040 5A6B     		ldr	r2, [r3, #52]
 879 0042 12F0005F 		tst	r2, #536870912
 880 0046 10D0     		beq	.L62
 995:Drivers/STM32L4xx_HAL_Driver/Src/stm32l4xx_hal_dac.c **** 
 881              		.loc 1 995 0
 882 0048 0422     		movs	r2, #4
 883 004a 2271     		strb	r2, [r4, #4]
 998:Drivers/STM32L4xx_HAL_Driver/Src/stm32l4xx_hal_dac.c **** 
 884              		.loc 1 998 0
 885 004c 2269     		ldr	r2, [r4, #16]
 886 004e 42F00202 		orr	r2, r2, #2
 887 0052 2261     		str	r2, [r4, #16]
1001:Drivers/STM32L4xx_HAL_Driver/Src/stm32l4xx_hal_dac.c **** 
 888              		.loc 1 1001 0
 889 0054 4FF00052 		mov	r2, #536870912
 890 0058 5A63     		str	r2, [r3, #52]
1004:Drivers/STM32L4xx_HAL_Driver/Src/stm32l4xx_hal_dac.c **** 
 891              		.loc 1 1004 0
 892 005a 2268     		ldr	r2, [r4]
 893 005c 1368     		ldr	r3, [r2]
 894 005e 23F08053 		bic	r3, r3, #268435456
 895 0062 1360     		str	r3, [r2]
1010:Drivers/STM32L4xx_HAL_Driver/Src/stm32l4xx_hal_dac.c **** #endif /* USE_HAL_DAC_REGISTER_CALLBACKS */
 896              		.loc 1 1010 0
 897 0064 2046     		mov	r0, r4
 898 0066 FFF7FEFF 		bl	HAL_DACEx_DMAUnderrunCallbackCh2
 899              	.LVL77:
 900              	.L62:
 901 006a 10BD     		pop	{r4, pc}
 902              		.cfi_endproc
 903              	.LFE296:
 905              		.section	.text.HAL_DAC_GetValue,"ax",%progbits
 906              		.align	2
 907              		.global	HAL_DAC_GetValue
 908              		.thumb
 909              		.thumb_func
 911              	HAL_DAC_GetValue:
 912              	.LFB302:
1156:Drivers/STM32L4xx_HAL_Driver/Src/stm32l4xx_hal_dac.c ****   /* Check the parameters */
 913              		.loc 1 1156 0
 914              		.cfi_startproc
 915              		@ args = 0, pretend = 0, frame = 0
 916              		@ frame_needed = 0, uses_anonymous_args = 0
 917              		@ link register save eliminated.
 918              	.LVL78:
1172:Drivers/STM32L4xx_HAL_Driver/Src/stm32l4xx_hal_dac.c ****   {
 919              		.loc 1 1172 0
 920 0000 11B9     		cbnz	r1, .L67
1174:Drivers/STM32L4xx_HAL_Driver/Src/stm32l4xx_hal_dac.c ****   }
 921              		.loc 1 1174 0
 922 0002 0368     		ldr	r3, [r0]
 923 0004 D86A     		ldr	r0, [r3, #44]
 924              	.LVL79:
ARM GAS  /tmp/ccNKo9M1.s 			page 48


 925 0006 7047     		bx	lr
 926              	.LVL80:
 927              	.L67:
1178:Drivers/STM32L4xx_HAL_Driver/Src/stm32l4xx_hal_dac.c ****   }
 928              		.loc 1 1178 0
 929 0008 0368     		ldr	r3, [r0]
 930 000a 186B     		ldr	r0, [r3, #48]
 931              	.LVL81:
1184:Drivers/STM32L4xx_HAL_Driver/Src/stm32l4xx_hal_dac.c **** 
 932              		.loc 1 1184 0
 933 000c 7047     		bx	lr
 934              		.cfi_endproc
 935              	.LFE302:
 937 000e 00BF     		.section	.text.HAL_DAC_ConfigChannel,"ax",%progbits
 938              		.align	2
 939              		.global	HAL_DAC_ConfigChannel
 940              		.thumb
 941              		.thumb_func
 943              	HAL_DAC_ConfigChannel:
 944              	.LFB303:
1203:Drivers/STM32L4xx_HAL_Driver/Src/stm32l4xx_hal_dac.c ****   uint32_t tmpreg1;
 945              		.loc 1 1203 0
 946              		.cfi_startproc
 947              		@ args = 0, pretend = 0, frame = 0
 948              		@ frame_needed = 0, uses_anonymous_args = 0
 949              	.LVL82:
 950 0000 F8B5     		push	{r3, r4, r5, r6, r7, lr}
 951              	.LCFI20:
 952              		.cfi_def_cfa_offset 24
 953              		.cfi_offset 3, -24
 954              		.cfi_offset 4, -20
 955              		.cfi_offset 5, -16
 956              		.cfi_offset 6, -12
 957              		.cfi_offset 7, -8
 958              		.cfi_offset 14, -4
 959              	.LVL83:
1233:Drivers/STM32L4xx_HAL_Driver/Src/stm32l4xx_hal_dac.c **** 
 960              		.loc 1 1233 0
 961 0002 4379     		ldrb	r3, [r0, #5]	@ zero_extendqisi2
 962 0004 012B     		cmp	r3, #1
 963 0006 00F09380 		beq	.L78
 964 000a 1746     		mov	r7, r2
 965 000c 0D46     		mov	r5, r1
 966 000e 0446     		mov	r4, r0
1233:Drivers/STM32L4xx_HAL_Driver/Src/stm32l4xx_hal_dac.c **** 
 967              		.loc 1 1233 0 is_stmt 0 discriminator 2
 968 0010 0123     		movs	r3, #1
 969 0012 4371     		strb	r3, [r0, #5]
1236:Drivers/STM32L4xx_HAL_Driver/Src/stm32l4xx_hal_dac.c **** 
 970              		.loc 1 1236 0 is_stmt 1 discriminator 2
 971 0014 0223     		movs	r3, #2
 972 0016 0371     		strb	r3, [r0, #4]
1238:Drivers/STM32L4xx_HAL_Driver/Src/stm32l4xx_hal_dac.c ****   /* Sample on old configuration */
 973              		.loc 1 1238 0 discriminator 2
 974 0018 0B68     		ldr	r3, [r1]
 975 001a 042B     		cmp	r3, #4
 976 001c 49D1     		bne	.L71
ARM GAS  /tmp/ccNKo9M1.s 			page 49


1242:Drivers/STM32L4xx_HAL_Driver/Src/stm32l4xx_hal_dac.c **** 
 977              		.loc 1 1242 0
 978 001e FFF7FEFF 		bl	HAL_GetTick
 979              	.LVL84:
 980 0022 0646     		mov	r6, r0
 981              	.LVL85:
1244:Drivers/STM32L4xx_HAL_Driver/Src/stm32l4xx_hal_dac.c ****     {
 982              		.loc 1 1244 0
 983 0024 67B1     		cbz	r7, .L72
 984 0026 23E0     		b	.L73
 985              	.LVL86:
 986              	.L74:
1251:Drivers/STM32L4xx_HAL_Driver/Src/stm32l4xx_hal_dac.c ****         {
 987              		.loc 1 1251 0
 988 0028 FFF7FEFF 		bl	HAL_GetTick
 989              	.LVL87:
 990 002c 801B     		subs	r0, r0, r6
 991 002e 0128     		cmp	r0, #1
 992 0030 06D9     		bls	.L72
1254:Drivers/STM32L4xx_HAL_Driver/Src/stm32l4xx_hal_dac.c **** 
 993              		.loc 1 1254 0
 994 0032 2369     		ldr	r3, [r4, #16]
 995 0034 43F00803 		orr	r3, r3, #8
 996 0038 2361     		str	r3, [r4, #16]
1257:Drivers/STM32L4xx_HAL_Driver/Src/stm32l4xx_hal_dac.c **** 
 997              		.loc 1 1257 0
 998 003a 0320     		movs	r0, #3
 999 003c 2071     		strb	r0, [r4, #4]
1259:Drivers/STM32L4xx_HAL_Driver/Src/stm32l4xx_hal_dac.c ****         }
 1000              		.loc 1 1259 0
 1001 003e F8BD     		pop	{r3, r4, r5, r6, r7, pc}
 1002              	.LVL88:
 1003              	.L72:
1248:Drivers/STM32L4xx_HAL_Driver/Src/stm32l4xx_hal_dac.c ****       {
 1004              		.loc 1 1248 0
 1005 0040 2368     		ldr	r3, [r4]
 1006 0042 5B6B     		ldr	r3, [r3, #52]
 1007 0044 13F4004F 		tst	r3, #32768
 1008 0048 EED1     		bne	.L74
1262:Drivers/STM32L4xx_HAL_Driver/Src/stm32l4xx_hal_dac.c ****       hdac->Instance->SHSR1 = sConfig->DAC_SampleAndHoldConfig.DAC_SampleTime;
 1009              		.loc 1 1262 0
 1010 004a 0120     		movs	r0, #1
 1011 004c FFF7FEFF 		bl	HAL_Delay
 1012              	.LVL89:
1263:Drivers/STM32L4xx_HAL_Driver/Src/stm32l4xx_hal_dac.c ****     }
 1013              		.loc 1 1263 0
 1014 0050 2368     		ldr	r3, [r4]
 1015 0052 AA69     		ldr	r2, [r5, #24]
 1016 0054 1A64     		str	r2, [r3, #64]
 1017 0056 15E0     		b	.L75
 1018              	.L76:
1273:Drivers/STM32L4xx_HAL_Driver/Src/stm32l4xx_hal_dac.c ****         {
 1019              		.loc 1 1273 0
 1020 0058 FFF7FEFF 		bl	HAL_GetTick
 1021              	.LVL90:
 1022 005c 801B     		subs	r0, r0, r6
 1023 005e 0128     		cmp	r0, #1
ARM GAS  /tmp/ccNKo9M1.s 			page 50


 1024 0060 06D9     		bls	.L73
1276:Drivers/STM32L4xx_HAL_Driver/Src/stm32l4xx_hal_dac.c **** 
 1025              		.loc 1 1276 0
 1026 0062 2369     		ldr	r3, [r4, #16]
 1027 0064 43F00803 		orr	r3, r3, #8
 1028 0068 2361     		str	r3, [r4, #16]
1279:Drivers/STM32L4xx_HAL_Driver/Src/stm32l4xx_hal_dac.c **** 
 1029              		.loc 1 1279 0
 1030 006a 0320     		movs	r0, #3
 1031 006c 2071     		strb	r0, [r4, #4]
1281:Drivers/STM32L4xx_HAL_Driver/Src/stm32l4xx_hal_dac.c ****         }
 1032              		.loc 1 1281 0
 1033 006e F8BD     		pop	{r3, r4, r5, r6, r7, pc}
 1034              	.LVL91:
 1035              	.L73:
1270:Drivers/STM32L4xx_HAL_Driver/Src/stm32l4xx_hal_dac.c ****       {
 1036              		.loc 1 1270 0
 1037 0070 2368     		ldr	r3, [r4]
 1038 0072 5B6B     		ldr	r3, [r3, #52]
 1039 0074 002B     		cmp	r3, #0
 1040 0076 EFDB     		blt	.L76
1284:Drivers/STM32L4xx_HAL_Driver/Src/stm32l4xx_hal_dac.c ****       hdac->Instance->SHSR2 = sConfig->DAC_SampleAndHoldConfig.DAC_SampleTime;
 1041              		.loc 1 1284 0
 1042 0078 0120     		movs	r0, #1
 1043 007a FFF7FEFF 		bl	HAL_Delay
 1044              	.LVL92:
1285:Drivers/STM32L4xx_HAL_Driver/Src/stm32l4xx_hal_dac.c ****     }
 1045              		.loc 1 1285 0
 1046 007e 2368     		ldr	r3, [r4]
 1047 0080 AA69     		ldr	r2, [r5, #24]
 1048 0082 5A64     		str	r2, [r3, #68]
 1049              	.L75:
1290:Drivers/STM32L4xx_HAL_Driver/Src/stm32l4xx_hal_dac.c ****     /* RefreshTime */
 1050              		.loc 1 1290 0
 1051 0084 2668     		ldr	r6, [r4]
 1052              	.LVL93:
 1053 0086 B06C     		ldr	r0, [r6, #72]
 1054 0088 07F01001 		and	r1, r7, #16
 1055 008c 40F2FF32 		movw	r2, #1023
 1056 0090 8A40     		lsls	r2, r2, r1
 1057 0092 20EA0203 		bic	r3, r0, r2
 1058 0096 EA69     		ldr	r2, [r5, #28]
 1059 0098 8A40     		lsls	r2, r2, r1
 1060 009a 1A43     		orrs	r2, r2, r3
 1061 009c B264     		str	r2, [r6, #72]
1292:Drivers/STM32L4xx_HAL_Driver/Src/stm32l4xx_hal_dac.c ****   }
 1062              		.loc 1 1292 0
 1063 009e 2668     		ldr	r6, [r4]
 1064 00a0 F06C     		ldr	r0, [r6, #76]
 1065 00a2 FF23     		movs	r3, #255
 1066 00a4 8B40     		lsls	r3, r3, r1
 1067 00a6 20EA0302 		bic	r2, r0, r3
 1068 00aa 2B6A     		ldr	r3, [r5, #32]
 1069 00ac 8B40     		lsls	r3, r3, r1
 1070 00ae 1343     		orrs	r3, r3, r2
 1071 00b0 F364     		str	r3, [r6, #76]
 1072              	.L71:
ARM GAS  /tmp/ccNKo9M1.s 			page 51


1295:Drivers/STM32L4xx_HAL_Driver/Src/stm32l4xx_hal_dac.c ****   /* USER TRIMMING */
 1073              		.loc 1 1295 0
 1074 00b2 2B69     		ldr	r3, [r5, #16]
 1075 00b4 012B     		cmp	r3, #1
 1076 00b6 0BD1     		bne	.L77
1299:Drivers/STM32L4xx_HAL_Driver/Src/stm32l4xx_hal_dac.c ****     /* Clear trimming value */
 1077              		.loc 1 1299 0
 1078 00b8 2068     		ldr	r0, [r4]
 1079 00ba 816B     		ldr	r1, [r0, #56]
 1080              	.LVL94:
1301:Drivers/STM32L4xx_HAL_Driver/Src/stm32l4xx_hal_dac.c ****     /* Configure for the selected trimming offset */
 1081              		.loc 1 1301 0
 1082 00bc 07F01006 		and	r6, r7, #16
 1083 00c0 1F22     		movs	r2, #31
 1084 00c2 B240     		lsls	r2, r2, r6
 1085 00c4 21EA0202 		bic	r2, r1, r2
 1086              	.LVL95:
1303:Drivers/STM32L4xx_HAL_Driver/Src/stm32l4xx_hal_dac.c ****     /* Calculate CCR register value depending on DAC_Channel */
 1087              		.loc 1 1303 0
 1088 00c8 6B69     		ldr	r3, [r5, #20]
 1089              	.LVL96:
1305:Drivers/STM32L4xx_HAL_Driver/Src/stm32l4xx_hal_dac.c ****     /* Write to DAC CCR */
 1090              		.loc 1 1305 0
 1091 00ca B340     		lsls	r3, r3, r6
 1092              	.LVL97:
 1093 00cc 1343     		orrs	r3, r3, r2
 1094              	.LVL98:
1307:Drivers/STM32L4xx_HAL_Driver/Src/stm32l4xx_hal_dac.c ****   }
 1095              		.loc 1 1307 0
 1096 00ce 8363     		str	r3, [r0, #56]
 1097              	.LVL99:
 1098              	.L77:
1313:Drivers/STM32L4xx_HAL_Driver/Src/stm32l4xx_hal_dac.c ****   /* Clear DAC_MCR_MODEx bits */
 1099              		.loc 1 1313 0
 1100 00d0 2668     		ldr	r6, [r4]
 1101 00d2 F06B     		ldr	r0, [r6, #60]
 1102              	.LVL100:
1315:Drivers/STM32L4xx_HAL_Driver/Src/stm32l4xx_hal_dac.c ****   /* Configure for the selected DAC channel: mode, buffer output & on chip peripheral connect */
 1103              		.loc 1 1315 0
 1104 00d4 07F01002 		and	r2, r7, #16
 1105 00d8 0723     		movs	r3, #7
 1106 00da 9340     		lsls	r3, r3, r2
 1107 00dc 20EA0301 		bic	r1, r0, r3
 1108              	.LVL101:
1317:Drivers/STM32L4xx_HAL_Driver/Src/stm32l4xx_hal_dac.c ****   /* Calculate MCR register value depending on DAC_Channel */
 1109              		.loc 1 1317 0
 1110 00e0 2868     		ldr	r0, [r5]
 1111 00e2 AB68     		ldr	r3, [r5, #8]
 1112 00e4 1843     		orrs	r0, r0, r3
 1113 00e6 EB68     		ldr	r3, [r5, #12]
 1114 00e8 0343     		orrs	r3, r3, r0
 1115              	.LVL102:
1319:Drivers/STM32L4xx_HAL_Driver/Src/stm32l4xx_hal_dac.c ****   /* Write to DAC MCR */
 1116              		.loc 1 1319 0
 1117 00ea 9340     		lsls	r3, r3, r2
 1118              	.LVL103:
 1119 00ec 0B43     		orrs	r3, r3, r1
ARM GAS  /tmp/ccNKo9M1.s 			page 52


 1120              	.LVL104:
1321:Drivers/STM32L4xx_HAL_Driver/Src/stm32l4xx_hal_dac.c **** 
 1121              		.loc 1 1321 0
 1122 00ee F363     		str	r3, [r6, #60]
 1123              	.LVL105:
1324:Drivers/STM32L4xx_HAL_Driver/Src/stm32l4xx_hal_dac.c **** 
 1124              		.loc 1 1324 0
 1125 00f0 2068     		ldr	r0, [r4]
 1126 00f2 0168     		ldr	r1, [r0]
 1127 00f4 4FF48043 		mov	r3, #16384
 1128              	.LVL106:
 1129 00f8 9340     		lsls	r3, r3, r2
 1130 00fa 21EA0303 		bic	r3, r1, r3
 1131 00fe 0360     		str	r3, [r0]
 1132              	.LVL107:
1327:Drivers/STM32L4xx_HAL_Driver/Src/stm32l4xx_hal_dac.c ****   /* Clear TENx, TSELx, WAVEx and MAMPx bits */
 1133              		.loc 1 1327 0
 1134 0100 2668     		ldr	r6, [r4]
 1135 0102 3068     		ldr	r0, [r6]
 1136              	.LVL108:
1329:Drivers/STM32L4xx_HAL_Driver/Src/stm32l4xx_hal_dac.c ****   /* Configure for the selected DAC channel: trigger */
 1137              		.loc 1 1329 0
 1138 0104 40F6FC73 		movw	r3, #4092
 1139 0108 9340     		lsls	r3, r3, r2
 1140 010a 20EA0301 		bic	r1, r0, r3
 1141              	.LVL109:
1332:Drivers/STM32L4xx_HAL_Driver/Src/stm32l4xx_hal_dac.c ****   /* Calculate CR register value depending on DAC_Channel */
 1142              		.loc 1 1332 0
 1143 010e 6B68     		ldr	r3, [r5, #4]
 1144              	.LVL110:
1334:Drivers/STM32L4xx_HAL_Driver/Src/stm32l4xx_hal_dac.c **** #if defined (STM32L4P5xx) || defined (STM32L4Q5xx) || defined (STM32L4R5xx) || defined (STM32L4R7xx
 1145              		.loc 1 1334 0
 1146 0110 9340     		lsls	r3, r3, r2
 1147              	.LVL111:
 1148 0112 0B43     		orrs	r3, r3, r1
 1149              	.LVL112:
1365:Drivers/STM32L4xx_HAL_Driver/Src/stm32l4xx_hal_dac.c ****   /* Disable wave generation */
 1150              		.loc 1 1365 0
 1151 0114 3360     		str	r3, [r6]
 1152              	.LVL113:
1367:Drivers/STM32L4xx_HAL_Driver/Src/stm32l4xx_hal_dac.c **** 
 1153              		.loc 1 1367 0
 1154 0116 2068     		ldr	r0, [r4]
 1155 0118 0368     		ldr	r3, [r0]
 1156              	.LVL114:
 1157 011a C021     		movs	r1, #192
 1158 011c 01FA02F2 		lsl	r2, r1, r2
 1159 0120 23EA0202 		bic	r2, r3, r2
 1160 0124 0260     		str	r2, [r0]
 1161              	.LVL115:
1370:Drivers/STM32L4xx_HAL_Driver/Src/stm32l4xx_hal_dac.c **** 
 1162              		.loc 1 1370 0
 1163 0126 0123     		movs	r3, #1
 1164 0128 2371     		strb	r3, [r4, #4]
1373:Drivers/STM32L4xx_HAL_Driver/Src/stm32l4xx_hal_dac.c **** 
 1165              		.loc 1 1373 0
 1166 012a 0020     		movs	r0, #0
ARM GAS  /tmp/ccNKo9M1.s 			page 53


 1167 012c 6071     		strb	r0, [r4, #5]
1376:Drivers/STM32L4xx_HAL_Driver/Src/stm32l4xx_hal_dac.c **** }
 1168              		.loc 1 1376 0
 1169 012e F8BD     		pop	{r3, r4, r5, r6, r7, pc}
 1170              	.LVL116:
 1171              	.L78:
1233:Drivers/STM32L4xx_HAL_Driver/Src/stm32l4xx_hal_dac.c **** 
 1172              		.loc 1 1233 0
 1173 0130 0220     		movs	r0, #2
 1174              	.LVL117:
1377:Drivers/STM32L4xx_HAL_Driver/Src/stm32l4xx_hal_dac.c **** 
 1175              		.loc 1 1377 0
 1176 0132 F8BD     		pop	{r3, r4, r5, r6, r7, pc}
 1177              		.cfi_endproc
 1178              	.LFE303:
 1180              		.section	.text.HAL_DAC_GetState,"ax",%progbits
 1181              		.align	2
 1182              		.global	HAL_DAC_GetState
 1183              		.thumb
 1184              		.thumb_func
 1186              	HAL_DAC_GetState:
 1187              	.LFB304:
1406:Drivers/STM32L4xx_HAL_Driver/Src/stm32l4xx_hal_dac.c ****   /* Return DAC handle state */
 1188              		.loc 1 1406 0
 1189              		.cfi_startproc
 1190              		@ args = 0, pretend = 0, frame = 0
 1191              		@ frame_needed = 0, uses_anonymous_args = 0
 1192              		@ link register save eliminated.
 1193              	.LVL118:
1408:Drivers/STM32L4xx_HAL_Driver/Src/stm32l4xx_hal_dac.c **** }
 1194              		.loc 1 1408 0
 1195 0000 0079     		ldrb	r0, [r0, #4]	@ zero_extendqisi2
 1196              	.LVL119:
1409:Drivers/STM32L4xx_HAL_Driver/Src/stm32l4xx_hal_dac.c **** 
 1197              		.loc 1 1409 0
 1198 0002 7047     		bx	lr
 1199              		.cfi_endproc
 1200              	.LFE304:
 1202              		.section	.text.HAL_DAC_GetError,"ax",%progbits
 1203              		.align	2
 1204              		.global	HAL_DAC_GetError
 1205              		.thumb
 1206              		.thumb_func
 1208              	HAL_DAC_GetError:
 1209              	.LFB305:
1419:Drivers/STM32L4xx_HAL_Driver/Src/stm32l4xx_hal_dac.c ****   return hdac->ErrorCode;
 1210              		.loc 1 1419 0
 1211              		.cfi_startproc
 1212              		@ args = 0, pretend = 0, frame = 0
 1213              		@ frame_needed = 0, uses_anonymous_args = 0
 1214              		@ link register save eliminated.
 1215              	.LVL120:
1420:Drivers/STM32L4xx_HAL_Driver/Src/stm32l4xx_hal_dac.c **** }
 1216              		.loc 1 1420 0
 1217 0000 0069     		ldr	r0, [r0, #16]
 1218              	.LVL121:
1421:Drivers/STM32L4xx_HAL_Driver/Src/stm32l4xx_hal_dac.c **** 
ARM GAS  /tmp/ccNKo9M1.s 			page 54


 1219              		.loc 1 1421 0
 1220 0002 7047     		bx	lr
 1221              		.cfi_endproc
 1222              	.LFE305:
 1224              		.text
 1225              	.Letext0:
 1226              		.file 2 "/home/deh/launchpad/gcc-arm-none-eabi-5_4-2016q3/arm-none-eabi/include/machine/_default_t
 1227              		.file 3 "/home/deh/launchpad/gcc-arm-none-eabi-5_4-2016q3/arm-none-eabi/include/sys/_stdint.h"
 1228              		.file 4 "Drivers/CMSIS/Device/ST/STM32L4xx/Include/stm32l431xx.h"
 1229              		.file 5 "Drivers/STM32L4xx_HAL_Driver/Inc/stm32l4xx_hal_def.h"
 1230              		.file 6 "Drivers/STM32L4xx_HAL_Driver/Inc/stm32l4xx_hal_dma.h"
 1231              		.file 7 "Drivers/STM32L4xx_HAL_Driver/Inc/stm32l4xx_hal_dac.h"
 1232              		.file 8 "Drivers/CMSIS/Include/cmsis_gcc.h"
 1233              		.file 9 "Drivers/CMSIS/Include/core_cm4.h"
 1234              		.file 10 "Drivers/STM32L4xx_HAL_Driver/Inc/stm32l4xx_hal_dac_ex.h"
 1235              		.file 11 "Drivers/STM32L4xx_HAL_Driver/Inc/stm32l4xx_hal.h"
ARM GAS  /tmp/ccNKo9M1.s 			page 55

