ARM GAS  /tmp/ccUvuV4b.s 			page 1


   1              		.syntax unified
   2              		.cpu cortex-m4
   3              		.eabi_attribute 27, 1
   4              		.eabi_attribute 28, 1
   5              		.fpu fpv4-sp-d16
   6              		.eabi_attribute 20, 1
   7              		.eabi_attribute 21, 1
   8              		.eabi_attribute 23, 3
   9              		.eabi_attribute 24, 1
  10              		.eabi_attribute 25, 1
  11              		.eabi_attribute 26, 1
  12              		.eabi_attribute 30, 1
  13              		.eabi_attribute 34, 1
  14              		.eabi_attribute 18, 4
  15              		.thumb
  16              		.syntax unified
  17              		.file	"syscalls.c"
  18              		.text
  19              	.Ltext0:
  20              		.cfi_sections	.debug_frame
  21              		.section	.text._write,"ax",%progbits
  22              		.align	2
  23              		.global	_write
  24              		.thumb
  25              		.thumb_func
  27              	_write:
  28              	.LFB132:
  29              		.file 1 "Ourtasks/syscalls.c"
   1:Ourtasks/syscalls.c **** #include  <errno.h>
   2:Ourtasks/syscalls.c **** #include  <sys/unistd.h> // STDOUT_FILENO, STDERR_FILENO
   3:Ourtasks/syscalls.c **** #include "stm32l4xx_hal.h"
   4:Ourtasks/syscalls.c **** 
   5:Ourtasks/syscalls.c **** extern UART_HandleTypeDef huart1;
   6:Ourtasks/syscalls.c **** 
   7:Ourtasks/syscalls.c **** int _write(int file, char *data, int len)
   8:Ourtasks/syscalls.c **** {
  30              		.loc 1 8 0
  31              		.cfi_startproc
  32              		@ args = 0, pretend = 0, frame = 0
  33              		@ frame_needed = 0, uses_anonymous_args = 0
  34              	.LVL0:
  35 0000 10B5     		push	{r4, lr}
  36              	.LCFI0:
  37              		.cfi_def_cfa_offset 8
  38              		.cfi_offset 4, -8
  39              		.cfi_offset 14, -4
   9:Ourtasks/syscalls.c ****    if ((file != STDOUT_FILENO) && (file != STDERR_FILENO))
  40              		.loc 1 9 0
  41 0002 0138     		subs	r0, r0, #1
  42              	.LVL1:
  43 0004 0128     		cmp	r0, #1
  44 0006 06D9     		bls	.L2
  10:Ourtasks/syscalls.c ****    {
  11:Ourtasks/syscalls.c ****       errno = EBADF;
  45              		.loc 1 11 0
  46 0008 FFF7FEFF 		bl	__errno
  47              	.LVL2:
ARM GAS  /tmp/ccUvuV4b.s 			page 2


  48 000c 0923     		movs	r3, #9
  49 000e 0360     		str	r3, [r0]
  12:Ourtasks/syscalls.c ****       return -1;
  50              		.loc 1 12 0
  51 0010 4FF0FF30 		mov	r0, #-1
  52 0014 10BD     		pop	{r4, pc}
  53              	.LVL3:
  54              	.L2:
  55 0016 1446     		mov	r4, r2
  13:Ourtasks/syscalls.c ****    }
  14:Ourtasks/syscalls.c **** 
  15:Ourtasks/syscalls.c ****    // arbitrary timeout 1000
  16:Ourtasks/syscalls.c ****    HAL_StatusTypeDef status =
  56              		.loc 1 16 0
  57 0018 4FF47A73 		mov	r3, #1000
  58 001c 92B2     		uxth	r2, r2
  59              	.LVL4:
  60 001e 0448     		ldr	r0, .L6
  61 0020 FFF7FEFF 		bl	HAL_UART_Transmit
  62              	.LVL5:
  17:Ourtasks/syscalls.c ****       HAL_UART_Transmit(&huart1, (uint8_t*)data, len, 1000);
  18:Ourtasks/syscalls.c **** 
  19:Ourtasks/syscalls.c ****    // return # of bytes written - as best we can tell
  20:Ourtasks/syscalls.c ****    return (status == HAL_OK ? len : 0);
  63              		.loc 1 20 0
  64 0024 08B1     		cbz	r0, .L4
  65 0026 0020     		movs	r0, #0
  66              	.LVL6:
  67 0028 10BD     		pop	{r4, pc}
  68              	.LVL7:
  69              	.L4:
  70 002a 2046     		mov	r0, r4
  71              	.LVL8:
  21:Ourtasks/syscalls.c **** }...
  72              		.loc 1 21 0
  73 002c 10BD     		pop	{r4, pc}
  74              	.LVL9:
  75              	.L7:
  76 002e 00BF     		.align	2
  77              	.L6:
  78 0030 00000000 		.word	huart1
  79              		.cfi_endproc
  80              	.LFE132:
  82              		.text
  83              	.Letext0:
  84              		.file 2 "/home/deh/launchpad/gcc-arm-none-eabi-5_4-2016q3/arm-none-eabi/include/machine/_default_t
  85              		.file 3 "/home/deh/launchpad/gcc-arm-none-eabi-5_4-2016q3/arm-none-eabi/include/sys/_stdint.h"
  86              		.file 4 "Drivers/CMSIS/Device/ST/STM32L4xx/Include/stm32l431xx.h"
  87              		.file 5 "Drivers/STM32L4xx_HAL_Driver/Inc/stm32l4xx_hal_def.h"
  88              		.file 6 "Drivers/STM32L4xx_HAL_Driver/Inc/stm32l4xx_hal_dma.h"
  89              		.file 7 "Drivers/STM32L4xx_HAL_Driver/Inc/stm32l4xx_hal_uart.h"
  90              		.file 8 "Drivers/CMSIS/Include/cmsis_gcc.h"
  91              		.file 9 "Drivers/CMSIS/Include/core_cm4.h"
  92              		.file 10 "/home/deh/launchpad/gcc-arm-none-eabi-5_4-2016q3/arm-none-eabi/include/sys/errno.h"
ARM GAS  /tmp/ccUvuV4b.s 			page 3


DEFINED SYMBOLS
                            *ABS*:00000000 syscalls.c
     /tmp/ccUvuV4b.s:22     .text._write:00000000 $t
     /tmp/ccUvuV4b.s:27     .text._write:00000000 _write
     /tmp/ccUvuV4b.s:78     .text._write:00000030 $d
                     .debug_frame:00000010 $d

UNDEFINED SYMBOLS
__errno
HAL_UART_Transmit
huart1
